TN:
SF:/home/usr/Sources/SDK/IO.SDK.Tests/AberrationTests.cpp
FN:3,_ZN24Aberration_ToString_TestD0Ev
FN:3,_ZN24Aberration_ToString_TestD2Ev
FN:3,_ZN24Aberration_ToString_Test8TestBodyEv
FN:3,_ZN24Aberration_ToString_TestC2Ev
FNDA:1,_ZN24Aberration_ToString_Test8TestBodyEv
FNDA:1,_ZN24Aberration_ToString_TestC2Ev
FNDA:1,_ZN24Aberration_ToString_TestD0Ev
FNDA:1,_ZN24Aberration_ToString_TestD2Ev
FNF:4
FNH:4
DA:3,4
DA:6,2
LF:2
LH:2
end_of_record
TN:
SF:/home/usr/Sources/SDK/IO.SDK.Tests/ApogeeHeightChangingManeuverTests.cpp
FN:17,_ZN49ApogeeHeightChangingManeuverTests_CanExecute_Test8TestBodyEv
FN:17,_ZN49ApogeeHeightChangingManeuverTests_CanExecute_TestC2Ev
FN:17,_ZN49ApogeeHeightChangingManeuverTests_CanExecute_TestD2Ev
FN:17,_ZN49ApogeeHeightChangingManeuverTests_CanExecute_TestD0Ev
FN:48,_ZN59ApogeeHeightChangingManeuverTests_IncreaseApogeeHeight_TestC2Ev
FN:48,_ZN59ApogeeHeightChangingManeuverTests_IncreaseApogeeHeight_TestD2Ev
FN:48,_ZN59ApogeeHeightChangingManeuverTests_IncreaseApogeeHeight_Test8TestBodyEv
FN:48,_ZN59ApogeeHeightChangingManeuverTests_IncreaseApogeeHeight_TestD0Ev
FN:78,_ZN59ApogeeHeightChangingManeuverTests_DecreaseApogeeHeight_TestD0Ev
FN:78,_ZN59ApogeeHeightChangingManeuverTests_DecreaseApogeeHeight_Test8TestBodyEv
FN:78,_ZN59ApogeeHeightChangingManeuverTests_DecreaseApogeeHeight_TestC2Ev
FN:78,_ZN59ApogeeHeightChangingManeuverTests_DecreaseApogeeHeight_TestD2Ev
FNDA:1,_ZN59ApogeeHeightChangingManeuverTests_IncreaseApogeeHeight_TestC2Ev
FNDA:1,_ZN49ApogeeHeightChangingManeuverTests_CanExecute_Test8TestBodyEv
FNDA:1,_ZN59ApogeeHeightChangingManeuverTests_DecreaseApogeeHeight_TestD0Ev
FNDA:1,_ZN59ApogeeHeightChangingManeuverTests_DecreaseApogeeHeight_Test8TestBodyEv
FNDA:1,_ZN59ApogeeHeightChangingManeuverTests_IncreaseApogeeHeight_TestD2Ev
FNDA:1,_ZN59ApogeeHeightChangingManeuverTests_DecreaseApogeeHeight_TestC2Ev
FNDA:1,_ZN59ApogeeHeightChangingManeuverTests_IncreaseApogeeHeight_Test8TestBodyEv
FNDA:1,_ZN59ApogeeHeightChangingManeuverTests_IncreaseApogeeHeight_TestD0Ev
FNDA:1,_ZN49ApogeeHeightChangingManeuverTests_CanExecute_TestC2Ev
FNDA:1,_ZN49ApogeeHeightChangingManeuverTests_CanExecute_TestD2Ev
FNDA:1,_ZN49ApogeeHeightChangingManeuverTests_CanExecute_TestD0Ev
FNDA:1,_ZN59ApogeeHeightChangingManeuverTests_DecreaseApogeeHeight_TestD2Ev
FNF:12
FNH:12
DA:17,4
DA:19,1
DA:21,2
DA:22,3
DA:23,1
DA:24,2
DA:26,1
DA:27,1
DA:29,1
DA:31,1
DA:32,1
DA:33,1
DA:36,1
DA:39,1
DA:42,1
DA:45,1
DA:48,4
DA:50,1
DA:52,2
DA:53,3
DA:54,1
DA:55,2
DA:57,1
DA:58,1
DA:60,1
DA:63,1
DA:64,1
DA:65,1
DA:66,1
DA:68,1
DA:69,2
DA:71,1
DA:72,1
DA:73,1
DA:74,1
DA:75,1
DA:78,4
DA:80,1
DA:82,2
DA:83,3
DA:84,1
DA:85,2
DA:87,1
DA:88,1
DA:90,1
DA:93,1
DA:94,1
DA:95,1
DA:96,1
DA:98,1
DA:99,2
DA:101,1
DA:102,1
DA:103,1
DA:104,1
DA:105,1
LF:56
LH:56
end_of_record
TN:
SF:/home/usr/Sources/SDK/IO.SDK.Tests/ApsidalAlignmentManeuverTests.cpp
FN:18,_ZN40ApsidalAlignmentManeuver_CanExecute_TestD2Ev
FN:18,_ZN40ApsidalAlignmentManeuver_CanExecute_TestD0Ev
FN:18,_ZN40ApsidalAlignmentManeuver_CanExecute_TestC2Ev
FN:18,_ZN40ApsidalAlignmentManeuver_CanExecute_Test8TestBodyEv
FN:62,_ZN38ApsidalAlignmentManeuver_ExecuteQ_Test8TestBodyEv
FN:62,_ZN38ApsidalAlignmentManeuver_ExecuteQ_TestC2Ev
FN:62,_ZN38ApsidalAlignmentManeuver_ExecuteQ_TestD0Ev
FN:62,_ZN38ApsidalAlignmentManeuver_ExecuteQ_TestD2Ev
FN:114,_ZN38ApsidalAlignmentManeuver_ExecuteP_TestD0Ev
FN:114,_ZN38ApsidalAlignmentManeuver_ExecuteP_TestC2Ev
FN:114,_ZN38ApsidalAlignmentManeuver_ExecuteP_Test8TestBodyEv
FN:114,_ZN38ApsidalAlignmentManeuver_ExecuteP_TestD2Ev
FN:163,_ZN48ApsidalAlignmentManeuver_CheckOrbitalParams_TestD0Ev
FN:163,_ZN48ApsidalAlignmentManeuver_CheckOrbitalParams_TestD2Ev
FN:163,_ZN48ApsidalAlignmentManeuver_CheckOrbitalParams_TestC2Ev
FN:163,_ZN48ApsidalAlignmentManeuver_CheckOrbitalParams_Test8TestBodyEv
FNDA:1,_ZN38ApsidalAlignmentManeuver_ExecuteP_TestC2Ev
FNDA:1,_ZN38ApsidalAlignmentManeuver_ExecuteP_Test8TestBodyEv
FNDA:1,_ZN40ApsidalAlignmentManeuver_CanExecute_TestC2Ev
FNDA:1,_ZN38ApsidalAlignmentManeuver_ExecuteQ_Test8TestBodyEv
FNDA:1,_ZN40ApsidalAlignmentManeuver_CanExecute_TestD0Ev
FNDA:1,_ZN38ApsidalAlignmentManeuver_ExecuteP_TestD0Ev
FNDA:1,_ZN48ApsidalAlignmentManeuver_CheckOrbitalParams_TestD2Ev
FNDA:1,_ZN38ApsidalAlignmentManeuver_ExecuteQ_TestC2Ev
FNDA:1,_ZN48ApsidalAlignmentManeuver_CheckOrbitalParams_TestD0Ev
FNDA:1,_ZN40ApsidalAlignmentManeuver_CanExecute_TestD2Ev
FNDA:1,_ZN48ApsidalAlignmentManeuver_CheckOrbitalParams_Test8TestBodyEv
FNDA:1,_ZN38ApsidalAlignmentManeuver_ExecuteQ_TestD2Ev
FNDA:1,_ZN38ApsidalAlignmentManeuver_ExecuteP_TestD2Ev
FNDA:1,_ZN48ApsidalAlignmentManeuver_CheckOrbitalParams_TestC2Ev
FNDA:1,_ZN38ApsidalAlignmentManeuver_ExecuteQ_TestD0Ev
FNDA:1,_ZN40ApsidalAlignmentManeuver_CanExecute_Test8TestBodyEv
FNF:16
FNH:16
DA:18,4
DA:20,1
DA:21,2
DA:22,2
DA:24,3
DA:26,1
DA:27,2
DA:29,1
DA:30,1
DA:32,1
DA:34,1
DA:35,1
DA:37,1
DA:40,1
DA:43,1
DA:46,1
DA:49,1
DA:52,1
DA:55,1
DA:58,1
DA:62,4
DA:64,1
DA:65,2
DA:66,2
DA:68,3
DA:70,1
DA:71,1
DA:72,1
DA:73,1
DA:74,2
DA:76,1
DA:77,1
DA:79,1
DA:81,1
DA:82,1
DA:84,1
DA:87,1
DA:88,1
DA:91,1
DA:94,1
DA:96,1
DA:98,1
DA:101,1
DA:103,1
DA:104,1
DA:105,1
DA:106,1
DA:108,1
DA:109,1
DA:110,1
DA:111,1
DA:114,4
DA:116,1
DA:117,2
DA:118,2
DA:120,3
DA:122,1
DA:123,2
DA:125,1
DA:126,1
DA:128,1
DA:130,1
DA:131,1
DA:133,1
DA:136,1
DA:137,1
DA:140,1
DA:143,1
DA:146,1
DA:149,1
DA:151,1
DA:152,1
DA:153,1
DA:154,1
DA:156,1
DA:157,1
DA:158,1
DA:159,1
DA:163,4
DA:165,1
DA:167,2
DA:168,2
DA:170,1
DA:171,1
DA:173,1
DA:175,1
DA:176,1
DA:177,3
DA:179,1
DA:181,2
DA:183,1
DA:184,1
DA:186,1
DA:188,1
DA:189,1
DA:191,1
DA:193,1
DA:195,1
DA:197,1
DA:199,1
DA:200,1
DA:201,1
DA:202,1
DA:203,1
LF:104
LH:104
end_of_record
TN:
SF:/home/usr/Sources/SDK/IO.SDK.Tests/AzimuthRangeTests.cpp
FN:4,_ZN32AzimuthRange_Initialization_Test8TestBodyEv
FN:4,_ZN32AzimuthRange_Initialization_TestC2Ev
FN:4,_ZN32AzimuthRange_Initialization_TestD2Ev
FN:4,_ZN32AzimuthRange_Initialization_TestD0Ev
FN:13,_ZN23AzimuthRange_Span1_TestD0Ev
FN:13,_ZN23AzimuthRange_Span1_TestD2Ev
FN:13,_ZN23AzimuthRange_Span1_TestC2Ev
FN:13,_ZN23AzimuthRange_Span1_Test8TestBodyEv
FN:22,_ZN23AzimuthRange_Span2_Test8TestBodyEv
FN:22,_ZN23AzimuthRange_Span2_TestD2Ev
FN:22,_ZN23AzimuthRange_Span2_TestC2Ev
FN:22,_ZN23AzimuthRange_Span2_TestD0Ev
FN:31,_ZN23AzimuthRange_Span3_TestD0Ev
FN:31,_ZN23AzimuthRange_Span3_TestD2Ev
FN:31,_ZN23AzimuthRange_Span3_Test8TestBodyEv
FN:31,_ZN23AzimuthRange_Span3_TestC2Ev
FN:40,_ZN27AzimuthRange_IsInRange_TestC2Ev
FN:40,_ZN27AzimuthRange_IsInRange_Test8TestBodyEv
FN:40,_ZN27AzimuthRange_IsInRange_TestD2Ev
FN:40,_ZN27AzimuthRange_IsInRange_TestD0Ev
FN:52,_ZN28AzimuthRange_IsInRange2_TestD0Ev
FN:52,_ZN28AzimuthRange_IsInRange2_Test8TestBodyEv
FN:52,_ZN28AzimuthRange_IsInRange2_TestD2Ev
FN:52,_ZN28AzimuthRange_IsInRange2_TestC2Ev
FN:64,_ZN28AzimuthRange_IsInRange3_TestC2Ev
FN:64,_ZN28AzimuthRange_IsInRange3_TestD0Ev
FN:64,_ZN28AzimuthRange_IsInRange3_Test8TestBodyEv
FN:64,_ZN28AzimuthRange_IsInRange3_TestD2Ev
FN:75,_ZN28AzimuthRange_IsInRange4_Test8TestBodyEv
FN:75,_ZN28AzimuthRange_IsInRange4_TestD0Ev
FN:75,_ZN28AzimuthRange_IsInRange4_TestC2Ev
FN:75,_ZN28AzimuthRange_IsInRange4_TestD2Ev
FN:87,_ZN28AzimuthRange_IsInRange5_TestD0Ev
FN:87,_ZN28AzimuthRange_IsInRange5_Test8TestBodyEv
FN:87,_ZN28AzimuthRange_IsInRange5_TestC2Ev
FN:87,_ZN28AzimuthRange_IsInRange5_TestD2Ev
FN:99,_ZN31AzimuthRange_IsIntersected_TestC2Ev
FN:99,_ZN31AzimuthRange_IsIntersected_TestD2Ev
FN:99,_ZN31AzimuthRange_IsIntersected_TestD0Ev
FN:99,_ZN31AzimuthRange_IsIntersected_Test8TestBodyEv
FNDA:1,_ZN28AzimuthRange_IsInRange3_TestD0Ev
FNDA:1,_ZN27AzimuthRange_IsInRange_TestD2Ev
FNDA:1,_ZN28AzimuthRange_IsInRange2_TestC2Ev
FNDA:1,_ZN23AzimuthRange_Span1_Test8TestBodyEv
FNDA:1,_ZN28AzimuthRange_IsInRange3_TestD2Ev
FNDA:1,_ZN27AzimuthRange_IsInRange_TestD0Ev
FNDA:1,_ZN28AzimuthRange_IsInRange3_Test8TestBodyEv
FNDA:1,_ZN23AzimuthRange_Span3_TestC2Ev
FNDA:1,_ZN28AzimuthRange_IsInRange4_TestC2Ev
FNDA:1,_ZN28AzimuthRange_IsInRange4_TestD2Ev
FNDA:1,_ZN23AzimuthRange_Span3_Test8TestBodyEv
FNDA:1,_ZN23AzimuthRange_Span1_TestC2Ev
FNDA:1,_ZN27AzimuthRange_IsInRange_TestC2Ev
FNDA:1,_ZN32AzimuthRange_Initialization_TestD2Ev
FNDA:1,_ZN28AzimuthRange_IsInRange5_TestD2Ev
FNDA:1,_ZN23AzimuthRange_Span1_TestD2Ev
FNDA:1,_ZN31AzimuthRange_IsIntersected_Test8TestBodyEv
FNDA:1,_ZN23AzimuthRange_Span2_TestD0Ev
FNDA:1,_ZN28AzimuthRange_IsInRange2_TestD2Ev
FNDA:1,_ZN23AzimuthRange_Span3_TestD2Ev
FNDA:1,_ZN28AzimuthRange_IsInRange3_TestC2Ev
FNDA:1,_ZN27AzimuthRange_IsInRange_Test8TestBodyEv
FNDA:1,_ZN32AzimuthRange_Initialization_TestD0Ev
FNDA:1,_ZN32AzimuthRange_Initialization_TestC2Ev
FNDA:1,_ZN28AzimuthRange_IsInRange2_Test8TestBodyEv
FNDA:1,_ZN23AzimuthRange_Span2_TestD2Ev
FNDA:1,_ZN23AzimuthRange_Span1_TestD0Ev
FNDA:1,_ZN28AzimuthRange_IsInRange5_TestD0Ev
FNDA:1,_ZN23AzimuthRange_Span3_TestD0Ev
FNDA:1,_ZN28AzimuthRange_IsInRange5_Test8TestBodyEv
FNDA:1,_ZN28AzimuthRange_IsInRange5_TestC2Ev
FNDA:1,_ZN31AzimuthRange_IsIntersected_TestD0Ev
FNDA:1,_ZN31AzimuthRange_IsIntersected_TestD2Ev
FNDA:1,_ZN23AzimuthRange_Span2_TestC2Ev
FNDA:1,_ZN28AzimuthRange_IsInRange4_TestD0Ev
FNDA:1,_ZN28AzimuthRange_IsInRange4_Test8TestBodyEv
FNDA:1,_ZN31AzimuthRange_IsIntersected_TestC2Ev
FNDA:1,_ZN23AzimuthRange_Span2_Test8TestBodyEv
FNDA:1,_ZN28AzimuthRange_IsInRange2_TestD0Ev
FNDA:1,_ZN32AzimuthRange_Initialization_Test8TestBodyEv
FNF:40
FNH:40
DA:4,4
DA:6,1
DA:8,1
DA:9,1
DA:10,1
DA:13,4
DA:15,1
DA:17,1
DA:18,1
DA:19,1
DA:22,4
DA:24,1
DA:26,1
DA:27,1
DA:28,1
DA:31,4
DA:33,1
DA:35,1
DA:36,1
DA:37,1
DA:40,4
DA:42,1
DA:44,1
DA:45,1
DA:46,1
DA:47,1
DA:48,1
DA:49,1
DA:52,4
DA:54,1
DA:56,1
DA:57,1
DA:58,1
DA:59,1
DA:60,1
DA:61,1
DA:64,4
DA:66,1
DA:68,1
DA:69,1
DA:70,1
DA:71,1
DA:72,1
DA:75,4
DA:77,1
DA:79,1
DA:80,1
DA:81,1
DA:82,1
DA:83,1
DA:84,1
DA:87,4
DA:89,1
DA:91,1
DA:92,1
DA:93,1
DA:94,1
DA:95,1
DA:96,1
DA:99,4
DA:101,1
DA:103,1
DA:104,1
DA:105,1
DA:106,1
DA:108,1
DA:109,1
LF:67
LH:67
end_of_record
TN:
SF:/home/usr/Sources/SDK/IO.SDK.Tests/BodyTests.cpp
FN:8,_ZN24Body_Initialization_Test8TestBodyEv
FN:8,_ZN24Body_Initialization_TestC2Ev
FN:8,_ZN24Body_Initialization_TestD0Ev
FN:8,_ZN24Body_Initialization_TestD2Ev
FN:18,_ZN20Body_Satellites_TestC2Ev
FN:18,_ZN20Body_Satellites_TestD0Ev
FN:18,_ZN20Body_Satellites_Test8TestBodyEv
FN:18,_ZN20Body_Satellites_TestD2Ev
FN:29,_ZN26Body_SubObserverPoint_TestC2Ev
FN:29,_ZN26Body_SubObserverPoint_TestD0Ev
FN:29,_ZN26Body_SubObserverPoint_TestD2Ev
FN:29,_ZN26Body_SubObserverPoint_Test8TestBodyEv
FN:41,_ZN23Body_SubSolarPoint_Test8TestBodyEv
FN:41,_ZN23Body_SubSolarPoint_TestD0Ev
FN:41,_ZN23Body_SubSolarPoint_TestC2Ev
FN:41,_ZN23Body_SubSolarPoint_TestD2Ev
FNDA:1,_ZN26Body_SubObserverPoint_Test8TestBodyEv
FNDA:1,_ZN26Body_SubObserverPoint_TestD2Ev
FNDA:1,_ZN24Body_Initialization_TestD2Ev
FNDA:1,_ZN20Body_Satellites_TestD2Ev
FNDA:1,_ZN23Body_SubSolarPoint_TestD2Ev
FNDA:1,_ZN23Body_SubSolarPoint_TestC2Ev
FNDA:1,_ZN26Body_SubObserverPoint_TestD0Ev
FNDA:1,_ZN23Body_SubSolarPoint_TestD0Ev
FNDA:1,_ZN26Body_SubObserverPoint_TestC2Ev
FNDA:1,_ZN20Body_Satellites_Test8TestBodyEv
FNDA:1,_ZN24Body_Initialization_TestD0Ev
FNDA:1,_ZN20Body_Satellites_TestD0Ev
FNDA:1,_ZN20Body_Satellites_TestC2Ev
FNDA:1,_ZN24Body_Initialization_TestC2Ev
FNDA:1,_ZN24Body_Initialization_Test8TestBodyEv
FNDA:1,_ZN23Body_SubSolarPoint_Test8TestBodyEv
FNF:16
FNH:16
DA:8,4
DA:10,1
DA:11,2
DA:12,1
DA:13,2
DA:14,1
DA:15,1
DA:18,4
DA:20,1
DA:21,1
DA:24,1
DA:25,1
DA:26,1
DA:29,4
DA:31,1
DA:32,1
DA:33,1
DA:35,1
DA:36,1
DA:37,1
DA:38,1
DA:41,4
DA:43,1
DA:44,1
DA:45,1
DA:47,1
DA:48,1
DA:49,1
DA:50,1
LF:29
LH:29
end_of_record
TN:
SF:/home/usr/Sources/SDK/IO.SDK.Tests/CelestialBodyTests.cpp
FN:14,_ZN36CelestialBody_SphereOfInfluence_TestD0Ev
FN:14,_ZN36CelestialBody_SphereOfInfluence_Test8TestBodyEv
FN:14,_ZN36CelestialBody_SphereOfInfluence_TestD2Ev
FN:14,_ZN36CelestialBody_SphereOfInfluence_TestC2Ev
FN:27,_ZN29CelestialBody_HillSphere_Test8TestBodyEv
FN:27,_ZN29CelestialBody_HillSphere_TestD0Ev
FN:27,_ZN29CelestialBody_HillSphere_TestD2Ev
FN:27,_ZN29CelestialBody_HillSphere_TestC2Ev
FN:40,_ZN33CelestialBody_GetStateVector_TestC2Ev
FN:40,_ZN33CelestialBody_GetStateVector_Test8TestBodyEv
FN:40,_ZN33CelestialBody_GetStateVector_TestD0Ev
FN:40,_ZN33CelestialBody_GetStateVector_TestD2Ev
FN:55,_ZN41CelestialBody_GetRelativeStateVector_TestD2Ev
FN:55,_ZN41CelestialBody_GetRelativeStateVector_Test8TestBodyEv
FN:55,_ZN41CelestialBody_GetRelativeStateVector_TestC2Ev
FN:55,_ZN41CelestialBody_GetRelativeStateVector_TestD0Ev
FN:67,_ZN40CelestialBody_IsInSphereOfInfluence_TestD0Ev
FN:67,_ZN40CelestialBody_IsInSphereOfInfluence_TestD2Ev
FN:67,_ZN40CelestialBody_IsInSphereOfInfluence_Test8TestBodyEv
FN:67,_ZN40CelestialBody_IsInSphereOfInfluence_TestC2Ev
FN:80,_ZN33CelestialBody_IsInHillSphere_Test8TestBodyEv
FN:80,_ZN33CelestialBody_IsInHillSphere_TestD0Ev
FN:80,_ZN33CelestialBody_IsInHillSphere_TestD2Ev
FN:80,_ZN33CelestialBody_IsInHillSphere_TestC2Ev
FN:93,_ZN27CelestialBody_GetRadii_TestD0Ev
FN:93,_ZN27CelestialBody_GetRadii_TestC2Ev
FN:93,_ZN27CelestialBody_GetRadii_Test8TestBodyEv
FN:93,_ZN27CelestialBody_GetRadii_TestD2Ev
FN:101,_ZN32CelestialBody_GetFlattening_TestD2Ev
FN:101,_ZN32CelestialBody_GetFlattening_Test8TestBodyEv
FN:101,_ZN32CelestialBody_GetFlattening_TestC2Ev
FN:101,_ZN32CelestialBody_GetFlattening_TestD0Ev
FN:109,_ZN37CelestialBody_GetAngularVelocity_TestD0Ev
FN:109,_ZN37CelestialBody_GetAngularVelocity_Test8TestBodyEv
FN:109,_ZN37CelestialBody_GetAngularVelocity_TestC2Ev
FN:109,_ZN37CelestialBody_GetAngularVelocity_TestD2Ev
FN:117,_ZN43CelestialBody_GetSideralRotationPeriod_Test8TestBodyEv
FN:117,_ZN43CelestialBody_GetSideralRotationPeriod_TestD0Ev
FN:117,_ZN43CelestialBody_GetSideralRotationPeriod_TestD2Ev
FN:117,_ZN43CelestialBody_GetSideralRotationPeriod_TestC2Ev
FN:125,_ZN41CelestialBody_FindDistanceConstraint_TestD0Ev
FN:125,_ZN41CelestialBody_FindDistanceConstraint_Test8TestBodyEv
FN:125,_ZN41CelestialBody_FindDistanceConstraint_TestD2Ev
FN:125,_ZN41CelestialBody_FindDistanceConstraint_TestC2Ev
FN:142,_ZN44CelestialBody_FindOccultationConstraint_TestD2Ev
FN:142,_ZN44CelestialBody_FindOccultationConstraint_Test8TestBodyEv
FN:142,_ZN44CelestialBody_FindOccultationConstraint_TestC2Ev
FN:142,_ZN44CelestialBody_FindOccultationConstraint_TestD0Ev
FNDA:1,_ZN40CelestialBody_IsInSphereOfInfluence_TestD2Ev
FNDA:1,_ZN44CelestialBody_FindOccultationConstraint_TestD0Ev
FNDA:1,_ZN44CelestialBody_FindOccultationConstraint_TestC2Ev
FNDA:1,_ZN32CelestialBody_GetFlattening_TestC2Ev
FNDA:1,_ZN40CelestialBody_IsInSphereOfInfluence_TestC2Ev
FNDA:1,_ZN44CelestialBody_FindOccultationConstraint_Test8TestBodyEv
FNDA:1,_ZN43CelestialBody_GetSideralRotationPeriod_TestD0Ev
FNDA:1,_ZN41CelestialBody_GetRelativeStateVector_TestD0Ev
FNDA:1,_ZN33CelestialBody_GetStateVector_Test8TestBodyEv
FNDA:1,_ZN40CelestialBody_IsInSphereOfInfluence_Test8TestBodyEv
FNDA:1,_ZN43CelestialBody_GetSideralRotationPeriod_Test8TestBodyEv
FNDA:1,_ZN44CelestialBody_FindOccultationConstraint_TestD2Ev
FNDA:1,_ZN41CelestialBody_GetRelativeStateVector_Test8TestBodyEv
FNDA:1,_ZN36CelestialBody_SphereOfInfluence_TestD0Ev
FNDA:1,_ZN29CelestialBody_HillSphere_Test8TestBodyEv
FNDA:1,_ZN32CelestialBody_GetFlattening_Test8TestBodyEv
FNDA:1,_ZN41CelestialBody_GetRelativeStateVector_TestD2Ev
FNDA:1,_ZN37CelestialBody_GetAngularVelocity_TestD0Ev
FNDA:1,_ZN32CelestialBody_GetFlattening_TestD2Ev
FNDA:1,_ZN41CelestialBody_GetRelativeStateVector_TestC2Ev
FNDA:1,_ZN33CelestialBody_GetStateVector_TestC2Ev
FNDA:1,_ZN27CelestialBody_GetRadii_TestD0Ev
FNDA:1,_ZN37CelestialBody_GetAngularVelocity_Test8TestBodyEv
FNDA:1,_ZN40CelestialBody_IsInSphereOfInfluence_TestD0Ev
FNDA:1,_ZN29CelestialBody_HillSphere_TestD0Ev
FNDA:1,_ZN41CelestialBody_FindDistanceConstraint_TestD0Ev
FNDA:1,_ZN36CelestialBody_SphereOfInfluence_Test8TestBodyEv
FNDA:1,_ZN43CelestialBody_GetSideralRotationPeriod_TestC2Ev
FNDA:1,_ZN32CelestialBody_GetFlattening_TestD0Ev
FNDA:1,_ZN33CelestialBody_IsInHillSphere_TestC2Ev
FNDA:1,_ZN43CelestialBody_GetSideralRotationPeriod_TestD2Ev
FNDA:1,_ZN27CelestialBody_GetRadii_TestD2Ev
FNDA:1,_ZN29CelestialBody_HillSphere_TestC2Ev
FNDA:1,_ZN41CelestialBody_FindDistanceConstraint_TestC2Ev
FNDA:1,_ZN33CelestialBody_GetStateVector_TestD2Ev
FNDA:1,_ZN36CelestialBody_SphereOfInfluence_TestC2Ev
FNDA:1,_ZN37CelestialBody_GetAngularVelocity_TestD2Ev
FNDA:1,_ZN33CelestialBody_IsInHillSphere_Test8TestBodyEv
FNDA:1,_ZN27CelestialBody_GetRadii_Test8TestBodyEv
FNDA:1,_ZN36CelestialBody_SphereOfInfluence_TestD2Ev
FNDA:1,_ZN33CelestialBody_GetStateVector_TestD0Ev
FNDA:1,_ZN27CelestialBody_GetRadii_TestC2Ev
FNDA:1,_ZN41CelestialBody_FindDistanceConstraint_Test8TestBodyEv
FNDA:1,_ZN37CelestialBody_GetAngularVelocity_TestC2Ev
FNDA:1,_ZN29CelestialBody_HillSphere_TestD2Ev
FNDA:1,_ZN33CelestialBody_IsInHillSphere_TestD2Ev
FNDA:1,_ZN33CelestialBody_IsInHillSphere_TestD0Ev
FNDA:1,_ZN41CelestialBody_FindDistanceConstraint_TestD2Ev
FNF:48
FNH:48
DA:14,4
DA:16,1
DA:17,1
DA:19,1
DA:21,1
DA:23,1
DA:24,1
DA:27,4
DA:29,1
DA:30,1
DA:32,1
DA:34,1
DA:36,1
DA:37,1
DA:40,4
DA:42,1
DA:43,2
DA:44,1
DA:46,1
DA:47,1
DA:48,2
DA:51,1
DA:52,2
DA:55,4
DA:57,1
DA:58,2
DA:59,1
DA:60,1
DA:62,1
DA:63,1
DA:64,2
DA:67,4
DA:69,1
DA:70,2
DA:71,1
DA:72,1
DA:74,1
DA:76,1
DA:77,1
DA:80,4
DA:82,1
DA:83,2
DA:84,1
DA:85,1
DA:87,1
DA:89,1
DA:90,1
DA:93,4
DA:95,1
DA:96,2
DA:97,1
DA:98,1
DA:101,4
DA:103,1
DA:104,2
DA:105,1
DA:106,1
DA:109,4
DA:111,1
DA:112,2
DA:113,1
DA:114,1
DA:117,4
DA:119,1
DA:120,2
DA:121,1
DA:122,1
DA:125,4
DA:127,1
DA:128,2
DA:129,1
DA:130,1
DA:132,3
DA:133,1
DA:135,1
DA:136,2
DA:137,2
DA:138,2
DA:139,2
DA:142,4
DA:144,1
DA:145,2
DA:146,1
DA:147,1
DA:149,3
DA:150,1
DA:152,1
DA:153,2
DA:154,2
LF:89
LH:89
end_of_record
TN:
SF:/home/usr/Sources/SDK/IO.SDK.Tests/CombinedManeuverTests.cpp
FN:19,_ZN32CombinedManeuver_CanExecute_TestC2Ev
FN:19,_ZN32CombinedManeuver_CanExecute_TestD2Ev
FN:19,_ZN32CombinedManeuver_CanExecute_TestD0Ev
FN:19,_ZN32CombinedManeuver_CanExecute_Test8TestBodyEv
FN:45,_ZN59CombinedManeuver_TryExecuteWithPeregeeHigherThanApogee_TestD2Ev
FN:45,_ZN59CombinedManeuver_TryExecuteWithPeregeeHigherThanApogee_Test8TestBodyEv
FN:45,_ZN59CombinedManeuver_TryExecuteWithPeregeeHigherThanApogee_TestC2Ev
FN:45,_ZN59CombinedManeuver_TryExecuteWithPeregeeHigherThanApogee_TestD0Ev
FN:80,_ZN58CombinedManeuver_TryExecuteWithPeregeeLowerThanApogee_TestD2Ev
FN:80,_ZN58CombinedManeuver_TryExecuteWithPeregeeLowerThanApogee_TestC2Ev
FN:80,_ZN58CombinedManeuver_TryExecuteWithPeregeeLowerThanApogee_Test8TestBodyEv
FN:80,_ZN58CombinedManeuver_TryExecuteWithPeregeeLowerThanApogee_TestD0Ev
FNDA:1,_ZN58CombinedManeuver_TryExecuteWithPeregeeLowerThanApogee_Test8TestBodyEv
FNDA:1,_ZN58CombinedManeuver_TryExecuteWithPeregeeLowerThanApogee_TestD0Ev
FNDA:1,_ZN32CombinedManeuver_CanExecute_Test8TestBodyEv
FNDA:1,_ZN32CombinedManeuver_CanExecute_TestD0Ev
FNDA:1,_ZN59CombinedManeuver_TryExecuteWithPeregeeHigherThanApogee_TestD0Ev
FNDA:1,_ZN59CombinedManeuver_TryExecuteWithPeregeeHigherThanApogee_TestC2Ev
FNDA:1,_ZN58CombinedManeuver_TryExecuteWithPeregeeLowerThanApogee_TestC2Ev
FNDA:1,_ZN58CombinedManeuver_TryExecuteWithPeregeeLowerThanApogee_TestD2Ev
FNDA:1,_ZN32CombinedManeuver_CanExecute_TestD2Ev
FNDA:1,_ZN59CombinedManeuver_TryExecuteWithPeregeeHigherThanApogee_Test8TestBodyEv
FNDA:1,_ZN59CombinedManeuver_TryExecuteWithPeregeeHigherThanApogee_TestD2Ev
FNDA:1,_ZN32CombinedManeuver_CanExecute_TestC2Ev
FNF:12
FNH:12
DA:19,4
DA:21,1
DA:22,2
DA:24,3
DA:26,1
DA:27,2
DA:29,1
DA:30,1
DA:32,1
DA:34,1
DA:35,1
DA:37,1
DA:39,1
DA:40,1
DA:41,1
DA:42,1
DA:45,4
DA:47,1
DA:48,2
DA:50,3
DA:52,1
DA:53,2
DA:55,1
DA:56,1
DA:58,1
DA:60,1
DA:61,1
DA:63,1
DA:66,1
DA:67,1
DA:70,1
DA:72,1
DA:73,1
DA:74,1
DA:75,1
DA:76,1
DA:77,1
DA:80,4
DA:82,1
DA:83,2
DA:85,3
DA:87,1
DA:88,2
DA:90,1
DA:91,1
DA:93,1
DA:95,1
DA:96,1
DA:98,1
DA:101,1
DA:102,1
DA:105,1
DA:107,1
DA:108,1
DA:109,1
DA:110,1
DA:111,1
DA:112,1
LF:58
LH:58
end_of_record
TN:
SF:/home/usr/Sources/SDK/IO.SDK.Tests/ConicOrbitalElementsTests.cpp
FN:14,_ZN40ConicOrbitalElements_Initialization_Test8TestBodyEv
FN:14,_ZN40ConicOrbitalElements_Initialization_TestD0Ev
FN:14,_ZN40ConicOrbitalElements_Initialization_TestC2Ev
FN:14,_ZN40ConicOrbitalElements_Initialization_TestD2Ev
FN:47,_ZN40ConicOrbitalElements_GetMeanAnomaly_Test8TestBodyEv
FN:47,_ZN40ConicOrbitalElements_GetMeanAnomaly_TestD0Ev
FN:47,_ZN40ConicOrbitalElements_GetMeanAnomaly_TestD2Ev
FN:47,_ZN40ConicOrbitalElements_GetMeanAnomaly_TestC2Ev
FN:70,_ZN45ConicOrbitalElements_GetEccentricAnomaly_Test8TestBodyEv
FN:70,_ZN45ConicOrbitalElements_GetEccentricAnomaly_TestD0Ev
FN:70,_ZN45ConicOrbitalElements_GetEccentricAnomaly_TestC2Ev
FN:70,_ZN45ConicOrbitalElements_GetEccentricAnomaly_TestD2Ev
FN:85,_ZN40ConicOrbitalElements_GetTrueAnomaly_TestD2Ev
FN:85,_ZN40ConicOrbitalElements_GetTrueAnomaly_Test8TestBodyEv
FN:85,_ZN40ConicOrbitalElements_GetTrueAnomaly_TestC2Ev
FN:85,_ZN40ConicOrbitalElements_GetTrueAnomaly_TestD0Ev
FN:100,_ZN46ConicOrbitalElements_GetTimeToMeanAnomaly_TestD2Ev
FN:100,_ZN46ConicOrbitalElements_GetTimeToMeanAnomaly_Test8TestBodyEv
FN:100,_ZN46ConicOrbitalElements_GetTimeToMeanAnomaly_TestC2Ev
FN:100,_ZN46ConicOrbitalElements_GetTimeToMeanAnomaly_TestD0Ev
FN:112,_ZN46ConicOrbitalElements_GetTimeToTrueAnomaly_Test8TestBodyEv
FN:112,_ZN46ConicOrbitalElements_GetTimeToTrueAnomaly_TestC2Ev
FN:112,_ZN46ConicOrbitalElements_GetTimeToTrueAnomaly_TestD2Ev
FN:112,_ZN46ConicOrbitalElements_GetTimeToTrueAnomaly_TestD0Ev
FN:130,_ZN40ConicOrbitalElements_GetStateVector_TestD0Ev
FN:130,_ZN40ConicOrbitalElements_GetStateVector_TestD2Ev
FN:130,_ZN40ConicOrbitalElements_GetStateVector_TestC2Ev
FN:130,_ZN40ConicOrbitalElements_GetStateVector_Test8TestBodyEv
FN:161,_ZN38ConicOrbitalElements_IsElliptical_TestD2Ev
FN:161,_ZN38ConicOrbitalElements_IsElliptical_Test8TestBodyEv
FN:161,_ZN38ConicOrbitalElements_IsElliptical_TestD0Ev
FN:161,_ZN38ConicOrbitalElements_IsElliptical_TestC2Ev
FN:170,_ZN38ConicOrbitalElements_IsHyperbolic_TestC2Ev
FN:170,_ZN38ConicOrbitalElements_IsHyperbolic_TestD0Ev
FN:170,_ZN38ConicOrbitalElements_IsHyperbolic_TestD2Ev
FN:170,_ZN38ConicOrbitalElements_IsHyperbolic_Test8TestBodyEv
FN:179,_ZN37ConicOrbitalElements_IsParabolic_TestD0Ev
FN:179,_ZN37ConicOrbitalElements_IsParabolic_TestD2Ev
FN:179,_ZN37ConicOrbitalElements_IsParabolic_Test8TestBodyEv
FN:179,_ZN37ConicOrbitalElements_IsParabolic_TestC2Ev
FN:188,_ZN39ConicOrbitalElements_GetMeanMotion_Test8TestBodyEv
FN:188,_ZN39ConicOrbitalElements_GetMeanMotion_TestD0Ev
FN:188,_ZN39ConicOrbitalElements_GetMeanMotion_TestC2Ev
FN:188,_ZN39ConicOrbitalElements_GetMeanMotion_TestD2Ev
FN:200,_ZN50ConicOrbitalElements_GetSpecificOrbitalEnergy_Test8TestBodyEv
FN:200,_ZN50ConicOrbitalElements_GetSpecificOrbitalEnergy_TestC2Ev
FN:200,_ZN50ConicOrbitalElements_GetSpecificOrbitalEnergy_TestD0Ev
FN:200,_ZN50ConicOrbitalElements_GetSpecificOrbitalEnergy_TestD2Ev
FN:209,_ZN52ConicOrbitalElements_GetSpecificAngularMomentum_TestD2Ev
FN:209,_ZN52ConicOrbitalElements_GetSpecificAngularMomentum_TestD0Ev
FN:209,_ZN52ConicOrbitalElements_GetSpecificAngularMomentum_Test8TestBodyEv
FN:209,_ZN52ConicOrbitalElements_GetSpecificAngularMomentum_TestC2Ev
FN:218,_ZN34ConicOrbitalElements_GetRADec_TestD2Ev
FN:218,_ZN34ConicOrbitalElements_GetRADec_Test8TestBodyEv
FN:218,_ZN34ConicOrbitalElements_GetRADec_TestC2Ev
FN:218,_ZN34ConicOrbitalElements_GetRADec_TestD0Ev
FNDA:1,_ZN37ConicOrbitalElements_IsParabolic_TestC2Ev
FNDA:1,_ZN52ConicOrbitalElements_GetSpecificAngularMomentum_TestC2Ev
FNDA:1,_ZN46ConicOrbitalElements_GetTimeToMeanAnomaly_TestD0Ev
FNDA:1,_ZN45ConicOrbitalElements_GetEccentricAnomaly_TestD2Ev
FNDA:1,_ZN38ConicOrbitalElements_IsElliptical_TestC2Ev
FNDA:1,_ZN38ConicOrbitalElements_IsHyperbolic_Test8TestBodyEv
FNDA:1,_ZN40ConicOrbitalElements_Initialization_TestD2Ev
FNDA:1,_ZN52ConicOrbitalElements_GetSpecificAngularMomentum_Test8TestBodyEv
FNDA:1,_ZN40ConicOrbitalElements_GetMeanAnomaly_TestC2Ev
FNDA:1,_ZN40ConicOrbitalElements_GetStateVector_Test8TestBodyEv
FNDA:1,_ZN50ConicOrbitalElements_GetSpecificOrbitalEnergy_TestD2Ev
FNDA:1,_ZN46ConicOrbitalElements_GetTimeToTrueAnomaly_TestD0Ev
FNDA:1,_ZN39ConicOrbitalElements_GetMeanMotion_TestD2Ev
FNDA:1,_ZN38ConicOrbitalElements_IsElliptical_TestD0Ev
FNDA:1,_ZN45ConicOrbitalElements_GetEccentricAnomaly_TestC2Ev
FNDA:1,_ZN40ConicOrbitalElements_GetTrueAnomaly_TestD0Ev
FNDA:1,_ZN37ConicOrbitalElements_IsParabolic_Test8TestBodyEv
FNDA:1,_ZN50ConicOrbitalElements_GetSpecificOrbitalEnergy_TestD0Ev
FNDA:1,_ZN50ConicOrbitalElements_GetSpecificOrbitalEnergy_TestC2Ev
FNDA:1,_ZN50ConicOrbitalElements_GetSpecificOrbitalEnergy_Test8TestBodyEv
FNDA:1,_ZN40ConicOrbitalElements_GetStateVector_TestC2Ev
FNDA:1,_ZN40ConicOrbitalElements_Initialization_TestC2Ev
FNDA:1,_ZN38ConicOrbitalElements_IsHyperbolic_TestD2Ev
FNDA:1,_ZN46ConicOrbitalElements_GetTimeToTrueAnomaly_TestD2Ev
FNDA:1,_ZN52ConicOrbitalElements_GetSpecificAngularMomentum_TestD0Ev
FNDA:1,_ZN38ConicOrbitalElements_IsElliptical_Test8TestBodyEv
FNDA:1,_ZN40ConicOrbitalElements_GetStateVector_TestD2Ev
FNDA:1,_ZN34ConicOrbitalElements_GetRADec_TestD0Ev
FNDA:1,_ZN46ConicOrbitalElements_GetTimeToTrueAnomaly_TestC2Ev
FNDA:1,_ZN40ConicOrbitalElements_GetMeanAnomaly_TestD2Ev
FNDA:1,_ZN40ConicOrbitalElements_GetStateVector_TestD0Ev
FNDA:1,_ZN37ConicOrbitalElements_IsParabolic_TestD2Ev
FNDA:1,_ZN46ConicOrbitalElements_GetTimeToMeanAnomaly_TestC2Ev
FNDA:1,_ZN40ConicOrbitalElements_GetMeanAnomaly_TestD0Ev
FNDA:1,_ZN39ConicOrbitalElements_GetMeanMotion_TestC2Ev
FNDA:1,_ZN34ConicOrbitalElements_GetRADec_TestC2Ev
FNDA:1,_ZN40ConicOrbitalElements_GetTrueAnomaly_TestD2Ev
FNDA:1,_ZN40ConicOrbitalElements_GetTrueAnomaly_Test8TestBodyEv
FNDA:1,_ZN40ConicOrbitalElements_Initialization_TestD0Ev
FNDA:1,_ZN40ConicOrbitalElements_GetTrueAnomaly_TestC2Ev
FNDA:1,_ZN39ConicOrbitalElements_GetMeanMotion_TestD0Ev
FNDA:1,_ZN34ConicOrbitalElements_GetRADec_Test8TestBodyEv
FNDA:1,_ZN40ConicOrbitalElements_GetMeanAnomaly_Test8TestBodyEv
FNDA:1,_ZN45ConicOrbitalElements_GetEccentricAnomaly_TestD0Ev
FNDA:1,_ZN46ConicOrbitalElements_GetTimeToMeanAnomaly_Test8TestBodyEv
FNDA:1,_ZN34ConicOrbitalElements_GetRADec_TestD2Ev
FNDA:1,_ZN45ConicOrbitalElements_GetEccentricAnomaly_Test8TestBodyEv
FNDA:1,_ZN37ConicOrbitalElements_IsParabolic_TestD0Ev
FNDA:1,_ZN46ConicOrbitalElements_GetTimeToTrueAnomaly_Test8TestBodyEv
FNDA:1,_ZN46ConicOrbitalElements_GetTimeToMeanAnomaly_TestD2Ev
FNDA:1,_ZN52ConicOrbitalElements_GetSpecificAngularMomentum_TestD2Ev
FNDA:1,_ZN40ConicOrbitalElements_Initialization_Test8TestBodyEv
FNDA:1,_ZN38ConicOrbitalElements_IsHyperbolic_TestD0Ev
FNDA:1,_ZN38ConicOrbitalElements_IsElliptical_TestD2Ev
FNDA:1,_ZN39ConicOrbitalElements_GetMeanMotion_Test8TestBodyEv
FNDA:1,_ZN38ConicOrbitalElements_IsHyperbolic_TestC2Ev
FNF:56
FNH:56
DA:14,4
DA:16,1
DA:17,1
DA:19,1
DA:20,1
DA:21,1
DA:22,1
DA:23,1
DA:24,1
DA:25,1
DA:26,2
DA:27,1
DA:28,1
DA:29,1
DA:30,1
DA:32,1
DA:33,1
DA:34,1
DA:35,1
DA:36,1
DA:37,1
DA:38,1
DA:39,1
DA:40,1
DA:41,1
DA:42,1
DA:43,1
DA:44,1
DA:47,4
DA:49,1
DA:50,1
DA:53,2
DA:56,2
DA:59,2
DA:63,2
DA:65,1
DA:67,1
DA:70,4
DA:72,1
DA:73,1
DA:75,1
DA:76,1
DA:78,1
DA:79,1
DA:81,1
DA:82,1
DA:85,4
DA:87,1
DA:88,1
DA:90,1
DA:91,1
DA:93,1
DA:94,1
DA:96,1
DA:97,1
DA:100,4
DA:102,1
DA:103,1
DA:105,1
DA:106,1
DA:108,1
DA:109,1
DA:112,4
DA:114,1
DA:115,1
DA:117,1
DA:118,1
DA:120,1
DA:121,1
DA:123,1
DA:124,1
DA:126,1
DA:127,1
DA:130,4
DA:133,1
DA:134,1
DA:135,1
DA:137,1
DA:147,1
DA:149,1
DA:152,1
DA:153,1
DA:154,1
DA:156,1
DA:157,1
DA:158,1
DA:161,4
DA:163,1
DA:164,1
DA:165,1
DA:167,1
DA:170,4
DA:172,1
DA:173,1
DA:174,1
DA:176,1
DA:179,4
DA:181,1
DA:182,1
DA:183,1
DA:185,1
DA:188,4
DA:190,1
DA:191,1
DA:192,1
DA:193,1
DA:195,1
DA:197,1
DA:200,4
DA:202,1
DA:203,1
DA:204,1
DA:206,1
DA:209,4
DA:211,1
DA:212,1
DA:213,1
DA:215,1
DA:218,4
DA:220,1
DA:222,1
DA:224,1
DA:226,1
DA:227,1
DA:228,1
LF:125
LH:125
end_of_record
TN:
SF:/home/usr/Sources/SDK/IO.SDK.Tests/CoordinateSystemTests.cpp
FN:4,_ZN33CoordinateSystem_ToCharArray_TestC2Ev
FN:4,_ZN33CoordinateSystem_ToCharArray_TestD0Ev
FN:4,_ZN33CoordinateSystem_ToCharArray_Test8TestBodyEv
FN:4,_ZN33CoordinateSystem_ToCharArray_TestD2Ev
FNDA:1,_ZN33CoordinateSystem_ToCharArray_TestD2Ev
FNDA:1,_ZN33CoordinateSystem_ToCharArray_Test8TestBodyEv
FNDA:1,_ZN33CoordinateSystem_ToCharArray_TestD0Ev
FNDA:1,_ZN33CoordinateSystem_ToCharArray_TestC2Ev
FNF:4
FNH:4
DA:4,4
DA:6,1
DA:7,1
DA:8,1
DA:9,1
DA:10,1
DA:11,1
DA:12,1
DA:13,1
LF:9
LH:9
end_of_record
TN:
SF:/home/usr/Sources/SDK/IO.SDK.Tests/CoordinateTests.cpp
FN:4,_ZN27Coordinate_ToCharArray_TestC2Ev
FN:4,_ZN27Coordinate_ToCharArray_TestD0Ev
FN:4,_ZN27Coordinate_ToCharArray_TestD2Ev
FN:4,_ZN27Coordinate_ToCharArray_Test8TestBodyEv
FNDA:1,_ZN27Coordinate_ToCharArray_Test8TestBodyEv
FNDA:1,_ZN27Coordinate_ToCharArray_TestD2Ev
FNDA:1,_ZN27Coordinate_ToCharArray_TestD0Ev
FNDA:1,_ZN27Coordinate_ToCharArray_TestC2Ev
FNF:4
FNH:4
DA:4,4
DA:7,1
DA:8,1
DA:9,1
DA:10,1
DA:11,1
DA:12,1
DA:13,1
DA:14,1
DA:15,1
DA:16,1
DA:17,1
LF:12
LH:12
end_of_record
TN:
SF:/home/usr/Sources/SDK/IO.SDK.Tests/CylindricalTests.cpp
FN:4,_ZN31Cylindrical_Initialization_TestC2Ev
FN:4,_ZN31Cylindrical_Initialization_TestD0Ev
FN:4,_ZN31Cylindrical_Initialization_TestD2Ev
FN:4,_ZN31Cylindrical_Initialization_Test8TestBodyEv
FNDA:1,_ZN31Cylindrical_Initialization_TestC2Ev
FNDA:1,_ZN31Cylindrical_Initialization_Test8TestBodyEv
FNDA:1,_ZN31Cylindrical_Initialization_TestD0Ev
FNDA:1,_ZN31Cylindrical_Initialization_TestD2Ev
FNF:4
FNH:4
DA:4,4
DA:6,1
DA:7,1
DA:8,1
DA:9,1
LF:5
LH:5
end_of_record
TN:
SF:/home/usr/Sources/SDK/IO.SDK.Tests/EngineTests.cpp
FN:15,_ZN26Engine_Initialization_TestC2Ev
FN:15,_ZN26Engine_Initialization_TestD0Ev
FN:15,_ZN26Engine_Initialization_Test8TestBodyEv
FN:15,_ZN26Engine_Initialization_TestD2Ev
FN:38,_ZN18Engine_DeltaV_TestC2Ev
FN:38,_ZN18Engine_DeltaV_TestD2Ev
FN:38,_ZN18Engine_DeltaV_Test8TestBodyEv
FN:38,_ZN18Engine_DeltaV_TestD0Ev
FN:45,_ZN18Engine_DeltaT_TestD2Ev
FN:45,_ZN18Engine_DeltaT_TestD0Ev
FN:45,_ZN18Engine_DeltaT_Test8TestBodyEv
FN:45,_ZN18Engine_DeltaT_TestC2Ev
FN:51,_ZN18Engine_DeltaM_TestC2Ev
FN:51,_ZN18Engine_DeltaM_Test8TestBodyEv
FN:51,_ZN18Engine_DeltaM_TestD2Ev
FN:51,_ZN18Engine_DeltaM_TestD0Ev
FNDA:1,_ZN18Engine_DeltaM_Test8TestBodyEv
FNDA:1,_ZN18Engine_DeltaM_TestD2Ev
FNDA:1,_ZN18Engine_DeltaM_TestD0Ev
FNDA:1,_ZN18Engine_DeltaV_TestD0Ev
FNDA:1,_ZN26Engine_Initialization_TestD2Ev
FNDA:1,_ZN18Engine_DeltaT_TestD2Ev
FNDA:1,_ZN18Engine_DeltaV_TestC2Ev
FNDA:1,_ZN18Engine_DeltaV_TestD2Ev
FNDA:1,_ZN18Engine_DeltaV_Test8TestBodyEv
FNDA:1,_ZN18Engine_DeltaT_TestD0Ev
FNDA:1,_ZN26Engine_Initialization_Test8TestBodyEv
FNDA:1,_ZN18Engine_DeltaM_TestC2Ev
FNDA:1,_ZN18Engine_DeltaT_Test8TestBodyEv
FNDA:1,_ZN18Engine_DeltaT_TestC2Ev
FNDA:1,_ZN26Engine_Initialization_TestC2Ev
FNDA:1,_ZN26Engine_Initialization_TestD0Ev
FNF:16
FNH:16
DA:15,4
DA:17,1
DA:18,2
DA:19,1
DA:20,3
DA:21,1
DA:22,1
DA:23,1
DA:24,2
DA:25,2
DA:26,1
DA:27,1
DA:28,1
DA:29,1
DA:30,1
DA:31,1
DA:32,1
DA:33,1
DA:34,1
DA:35,1
DA:38,4
DA:40,1
DA:42,1
DA:45,4
DA:47,1
DA:48,1
DA:51,4
DA:53,1
DA:54,1
LF:29
LH:29
end_of_record
TN:
SF:/home/usr/Sources/SDK/IO.SDK.Tests/EphemerisKernelTests.cpp
FN:15,_ZN42EphemerisKernel_WriteEvenlySpacedData_TestC2Ev
FN:15,_ZN42EphemerisKernel_WriteEvenlySpacedData_Test8TestBodyEv
FN:15,_ZN42EphemerisKernel_WriteEvenlySpacedData_TestD2Ev
FN:15,_ZN42EphemerisKernel_WriteEvenlySpacedData_TestD0Ev
FN:83,_ZN32EphemerisKernel_GetCoverage_Test8TestBodyEv
FN:83,_ZN32EphemerisKernel_GetCoverage_TestD0Ev
FN:83,_ZN32EphemerisKernel_GetCoverage_TestC2Ev
FN:83,_ZN32EphemerisKernel_GetCoverage_TestD2Ev
FN:128,_ZN31EphemerisKernel_AddComment_TestD0Ev
FN:128,_ZN31EphemerisKernel_AddComment_Test8TestBodyEv
FN:128,_ZN31EphemerisKernel_AddComment_TestC2Ev
FN:128,_ZN31EphemerisKernel_AddComment_TestD2Ev
FN:172,_ZN38EphemerisKernel_AddTooLongComment_Test8TestBodyEv
FN:172,_ZN38EphemerisKernel_AddTooLongComment_TestD2Ev
FN:172,_ZN38EphemerisKernel_AddTooLongComment_TestC2Ev
FN:172,_ZN38EphemerisKernel_AddTooLongComment_TestD0Ev
FNDA:1,_ZN42EphemerisKernel_WriteEvenlySpacedData_Test8TestBodyEv
FNDA:1,_ZN42EphemerisKernel_WriteEvenlySpacedData_TestC2Ev
FNDA:1,_ZN32EphemerisKernel_GetCoverage_Test8TestBodyEv
FNDA:1,_ZN38EphemerisKernel_AddTooLongComment_Test8TestBodyEv
FNDA:1,_ZN31EphemerisKernel_AddComment_TestC2Ev
FNDA:1,_ZN32EphemerisKernel_GetCoverage_TestC2Ev
FNDA:1,_ZN38EphemerisKernel_AddTooLongComment_TestC2Ev
FNDA:1,_ZN42EphemerisKernel_WriteEvenlySpacedData_TestD0Ev
FNDA:1,_ZN42EphemerisKernel_WriteEvenlySpacedData_TestD2Ev
FNDA:1,_ZN31EphemerisKernel_AddComment_Test8TestBodyEv
FNDA:1,_ZN32EphemerisKernel_GetCoverage_TestD0Ev
FNDA:1,_ZN31EphemerisKernel_AddComment_TestD0Ev
FNDA:1,_ZN38EphemerisKernel_AddTooLongComment_TestD2Ev
FNDA:1,_ZN32EphemerisKernel_GetCoverage_TestD2Ev
FNDA:1,_ZN31EphemerisKernel_AddComment_TestD2Ev
FNDA:1,_ZN38EphemerisKernel_AddTooLongComment_TestD0Ev
FNF:16
FNH:16
DA:15,4
DA:18,1
DA:19,2
DA:20,1
DA:21,3
DA:22,1
DA:24,1
DA:26,1
DA:28,1
DA:30,1
DA:32,1
DA:34,1
DA:36,1
DA:38,1
DA:40,1
DA:42,1
DA:43,1
DA:44,1
DA:45,1
DA:46,1
DA:47,1
DA:48,1
DA:49,1
DA:50,1
DA:51,1
DA:52,1
DA:54,1
DA:56,1
DA:58,1
DA:59,1
DA:60,1
DA:61,1
DA:62,1
DA:63,1
DA:65,1
DA:67,1
DA:68,1
DA:69,1
DA:70,1
DA:71,1
DA:72,1
DA:74,1
DA:76,1
DA:77,1
DA:78,1
DA:79,1
DA:80,1
DA:81,1
DA:83,4
DA:85,1
DA:86,2
DA:87,1
DA:88,3
DA:90,1
DA:92,1
DA:94,1
DA:96,1
DA:98,1
DA:100,1
DA:102,1
DA:104,1
DA:106,1
DA:108,1
DA:110,1
DA:111,1
DA:112,1
DA:113,1
DA:114,1
DA:115,1
DA:116,1
DA:117,1
DA:118,1
DA:119,1
DA:120,1
DA:122,1
DA:123,1
DA:124,1
DA:125,1
DA:126,1
DA:128,4
DA:130,1
DA:131,2
DA:132,1
DA:133,3
DA:135,1
DA:137,1
DA:139,1
DA:141,1
DA:143,1
DA:145,1
DA:147,1
DA:149,1
DA:151,1
DA:153,1
DA:155,1
DA:156,1
DA:157,1
DA:158,1
DA:159,1
DA:160,1
DA:161,1
DA:162,1
DA:163,1
DA:164,1
DA:165,1
DA:167,1
DA:168,1
DA:169,1
DA:170,1
DA:172,4
DA:174,1
DA:175,2
DA:176,1
DA:177,3
DA:179,3
LF:115
LH:115
end_of_record
TN:
SF:/home/usr/Sources/SDK/IO.SDK.Tests/EquinoctialElementsTests.cpp
FN:15,_ZN39EquinoctialElements_Initialization_TestC2Ev
FN:15,_ZN39EquinoctialElements_Initialization_TestD0Ev
FN:15,_ZN39EquinoctialElements_Initialization_Test8TestBodyEv
FN:15,_ZN39EquinoctialElements_Initialization_TestD2Ev
FN:54,_ZN52EquinoctialElements_InitializationFromKeplerian_TestC2Ev
FN:54,_ZN52EquinoctialElements_InitializationFromKeplerian_TestD2Ev
FN:54,_ZN52EquinoctialElements_InitializationFromKeplerian_TestD0Ev
FN:54,_ZN52EquinoctialElements_InitializationFromKeplerian_Test8TestBodyEv
FN:97,_ZN34EquinoctialElements_GetPeriod_TestD2Ev
FN:97,_ZN34EquinoctialElements_GetPeriod_TestD0Ev
FN:97,_ZN34EquinoctialElements_GetPeriod_Test8TestBodyEv
FN:97,_ZN34EquinoctialElements_GetPeriod_TestC2Ev
FN:122,_ZN39EquinoctialElements_GetStateVector_TestD0Ev
FN:122,_ZN39EquinoctialElements_GetStateVector_TestC2Ev
FN:122,_ZN39EquinoctialElements_GetStateVector_TestD2Ev
FN:122,_ZN39EquinoctialElements_GetStateVector_Test8TestBodyEv
FN:156,_ZN52EquinoctialElements_GetStateVectorFromKeplerian_Test8TestBodyEv
FN:156,_ZN52EquinoctialElements_GetStateVectorFromKeplerian_TestD2Ev
FN:156,_ZN52EquinoctialElements_GetStateVectorFromKeplerian_TestC2Ev
FN:156,_ZN52EquinoctialElements_GetStateVectorFromKeplerian_TestD0Ev
FN:183,_ZN56EquinoctialElements_GetStateVectorFrom0Eccentricity_TestD0Ev
FN:183,_ZN56EquinoctialElements_GetStateVectorFrom0Eccentricity_Test8TestBodyEv
FN:183,_ZN56EquinoctialElements_GetStateVectorFrom0Eccentricity_TestC2Ev
FN:183,_ZN56EquinoctialElements_GetStateVectorFrom0Eccentricity_TestD2Ev
FN:207,_ZN40EquinoctialElements_GetEccentricity_TestD2Ev
FN:207,_ZN40EquinoctialElements_GetEccentricity_TestD0Ev
FN:207,_ZN40EquinoctialElements_GetEccentricity_TestC2Ev
FN:207,_ZN40EquinoctialElements_GetEccentricity_Test8TestBodyEv
FN:235,_ZN39EquinoctialElements_GetInclination_TestD2Ev
FN:235,_ZN39EquinoctialElements_GetInclination_Test8TestBodyEv
FN:235,_ZN39EquinoctialElements_GetInclination_TestC2Ev
FN:235,_ZN39EquinoctialElements_GetInclination_TestD0Ev
FN:263,_ZN45EquinoctialElements_GetPeriapsisArgument_TestD0Ev
FN:263,_ZN45EquinoctialElements_GetPeriapsisArgument_TestC2Ev
FN:263,_ZN45EquinoctialElements_GetPeriapsisArgument_Test8TestBodyEv
FN:263,_ZN45EquinoctialElements_GetPeriapsisArgument_TestD2Ev
FN:291,_ZN46EquinoctialElements_GetRightAscendingNode_TestD0Ev
FN:291,_ZN46EquinoctialElements_GetRightAscendingNode_TestC2Ev
FN:291,_ZN46EquinoctialElements_GetRightAscendingNode_TestD2Ev
FN:291,_ZN46EquinoctialElements_GetRightAscendingNode_Test8TestBodyEv
FN:319,_ZN46EquinoctialElements_GetMeanAnomalyAtEpoch_TestD2Ev
FN:319,_ZN46EquinoctialElements_GetMeanAnomalyAtEpoch_Test8TestBodyEv
FN:319,_ZN46EquinoctialElements_GetMeanAnomalyAtEpoch_TestD0Ev
FN:319,_ZN46EquinoctialElements_GetMeanAnomalyAtEpoch_TestC2Ev
FN:347,_ZN49EquinoctialElements_GetSpecificOrbitalEnergy_TestC2Ev
FN:347,_ZN49EquinoctialElements_GetSpecificOrbitalEnergy_TestD0Ev
FN:347,_ZN49EquinoctialElements_GetSpecificOrbitalEnergy_TestD2Ev
FN:347,_ZN49EquinoctialElements_GetSpecificOrbitalEnergy_Test8TestBodyEv
FN:375,_ZN51EquinoctialElements_GetSpecificAngularMomentum_TestD0Ev
FN:375,_ZN51EquinoctialElements_GetSpecificAngularMomentum_Test8TestBodyEv
FN:375,_ZN51EquinoctialElements_GetSpecificAngularMomentum_TestC2Ev
FN:375,_ZN51EquinoctialElements_GetSpecificAngularMomentum_TestD2Ev
FN:402,_ZN46EquinoctialElements_GetTrueAnomalyAtEpoch_TestD2Ev
FN:402,_ZN46EquinoctialElements_GetTrueAnomalyAtEpoch_Test8TestBodyEv
FN:402,_ZN46EquinoctialElements_GetTrueAnomalyAtEpoch_TestD0Ev
FN:402,_ZN46EquinoctialElements_GetTrueAnomalyAtEpoch_TestC2Ev
FN:429,_ZN42EquinoctialElements_GetISSMeanAnomaly_TestC2Ev
FN:429,_ZN42EquinoctialElements_GetISSMeanAnomaly_TestD2Ev
FN:429,_ZN42EquinoctialElements_GetISSMeanAnomaly_TestD0Ev
FN:429,_ZN42EquinoctialElements_GetISSMeanAnomaly_Test8TestBodyEv
FN:456,_ZN41EquinoctialElements_GetSemiMajorAxis_TestD0Ev
FN:456,_ZN41EquinoctialElements_GetSemiMajorAxis_Test8TestBodyEv
FN:456,_ZN41EquinoctialElements_GetSemiMajorAxis_TestC2Ev
FN:456,_ZN41EquinoctialElements_GetSemiMajorAxis_TestD2Ev
FN:483,_ZN45EquinoctialElements_GetTimeToMeanAnomaly_TestD2Ev
FN:483,_ZN45EquinoctialElements_GetTimeToMeanAnomaly_TestC2Ev
FN:483,_ZN45EquinoctialElements_GetTimeToMeanAnomaly_Test8TestBodyEv
FN:483,_ZN45EquinoctialElements_GetTimeToMeanAnomaly_TestD0Ev
FN:510,_ZN47EquinoctialElements_GetMeanAnomalyForEpoch_TestD0Ev
FN:510,_ZN47EquinoctialElements_GetMeanAnomalyForEpoch_TestD2Ev
FN:510,_ZN47EquinoctialElements_GetMeanAnomalyForEpoch_Test8TestBodyEv
FN:510,_ZN47EquinoctialElements_GetMeanAnomalyForEpoch_TestC2Ev
FN:537,_ZN45EquinoctialElements_GetTimeToTrueAnomaly_TestD0Ev
FN:537,_ZN45EquinoctialElements_GetTimeToTrueAnomaly_Test8TestBodyEv
FN:537,_ZN45EquinoctialElements_GetTimeToTrueAnomaly_TestD2Ev
FN:537,_ZN45EquinoctialElements_GetTimeToTrueAnomaly_TestC2Ev
FN:564,_ZN47EquinoctialElements_GetTrueAnomalyForEpoch_TestD2Ev
FN:564,_ZN47EquinoctialElements_GetTrueAnomalyForEpoch_Test8TestBodyEv
FN:564,_ZN47EquinoctialElements_GetTrueAnomalyForEpoch_TestC2Ev
FN:564,_ZN47EquinoctialElements_GetTrueAnomalyForEpoch_TestD0Ev
FN:591,_ZN39EquinoctialElements_TrajectoryType_TestC2Ev
FN:591,_ZN39EquinoctialElements_TrajectoryType_TestD0Ev
FN:591,_ZN39EquinoctialElements_TrajectoryType_Test8TestBodyEv
FN:591,_ZN39EquinoctialElements_TrajectoryType_TestD2Ev
FNDA:1,_ZN46EquinoctialElements_GetMeanAnomalyAtEpoch_TestD0Ev
FNDA:1,_ZN41EquinoctialElements_GetSemiMajorAxis_Test8TestBodyEv
FNDA:1,_ZN39EquinoctialElements_GetInclination_TestC2Ev
FNDA:1,_ZN51EquinoctialElements_GetSpecificAngularMomentum_TestC2Ev
FNDA:1,_ZN45EquinoctialElements_GetTimeToTrueAnomaly_Test8TestBodyEv
FNDA:1,_ZN39EquinoctialElements_GetStateVector_TestD2Ev
FNDA:1,_ZN49EquinoctialElements_GetSpecificOrbitalEnergy_TestC2Ev
FNDA:1,_ZN40EquinoctialElements_GetEccentricity_TestD0Ev
FNDA:1,_ZN46EquinoctialElements_GetRightAscendingNode_TestD0Ev
FNDA:1,_ZN46EquinoctialElements_GetRightAscendingNode_TestC2Ev
FNDA:1,_ZN45EquinoctialElements_GetTimeToTrueAnomaly_TestD0Ev
FNDA:1,_ZN39EquinoctialElements_TrajectoryType_TestC2Ev
FNDA:1,_ZN46EquinoctialElements_GetMeanAnomalyAtEpoch_Test8TestBodyEv
FNDA:1,_ZN46EquinoctialElements_GetTrueAnomalyAtEpoch_Test8TestBodyEv
FNDA:1,_ZN45EquinoctialElements_GetTimeToMeanAnomaly_TestD2Ev
FNDA:1,_ZN47EquinoctialElements_GetMeanAnomalyForEpoch_Test8TestBodyEv
FNDA:1,_ZN45EquinoctialElements_GetPeriapsisArgument_TestD0Ev
FNDA:1,_ZN47EquinoctialElements_GetTrueAnomalyForEpoch_TestD2Ev
FNDA:1,_ZN46EquinoctialElements_GetMeanAnomalyAtEpoch_TestD2Ev
FNDA:1,_ZN52EquinoctialElements_InitializationFromKeplerian_TestD2Ev
FNDA:1,_ZN52EquinoctialElements_GetStateVectorFromKeplerian_TestC2Ev
FNDA:1,_ZN51EquinoctialElements_GetSpecificAngularMomentum_Test8TestBodyEv
FNDA:1,_ZN41EquinoctialElements_GetSemiMajorAxis_TestD0Ev
FNDA:1,_ZN52EquinoctialElements_InitializationFromKeplerian_TestD0Ev
FNDA:1,_ZN56EquinoctialElements_GetStateVectorFrom0Eccentricity_Test8TestBodyEv
FNDA:1,_ZN39EquinoctialElements_GetStateVector_TestC2Ev
FNDA:1,_ZN39EquinoctialElements_GetStateVector_TestD0Ev
FNDA:1,_ZN47EquinoctialElements_GetMeanAnomalyForEpoch_TestD2Ev
FNDA:1,_ZN39EquinoctialElements_GetInclination_Test8TestBodyEv
FNDA:1,_ZN51EquinoctialElements_GetSpecificAngularMomentum_TestD0Ev
FNDA:1,_ZN42EquinoctialElements_GetISSMeanAnomaly_TestC2Ev
FNDA:1,_ZN46EquinoctialElements_GetTrueAnomalyAtEpoch_TestD2Ev
FNDA:1,_ZN40EquinoctialElements_GetEccentricity_TestD2Ev
FNDA:1,_ZN34EquinoctialElements_GetPeriod_TestD0Ev
FNDA:1,_ZN52EquinoctialElements_GetStateVectorFromKeplerian_TestD2Ev
FNDA:1,_ZN52EquinoctialElements_InitializationFromKeplerian_TestC2Ev
FNDA:1,_ZN34EquinoctialElements_GetPeriod_TestD2Ev
FNDA:1,_ZN56EquinoctialElements_GetStateVectorFrom0Eccentricity_TestD0Ev
FNDA:1,_ZN39EquinoctialElements_GetInclination_TestD2Ev
FNDA:1,_ZN47EquinoctialElements_GetMeanAnomalyForEpoch_TestD0Ev
FNDA:1,_ZN52EquinoctialElements_GetStateVectorFromKeplerian_Test8TestBodyEv
FNDA:1,_ZN34EquinoctialElements_GetPeriod_TestC2Ev
FNDA:1,_ZN41EquinoctialElements_GetSemiMajorAxis_TestD2Ev
FNDA:1,_ZN52EquinoctialElements_GetStateVectorFromKeplerian_TestD0Ev
FNDA:1,_ZN45EquinoctialElements_GetTimeToMeanAnomaly_TestD0Ev
FNDA:1,_ZN42EquinoctialElements_GetISSMeanAnomaly_Test8TestBodyEv
FNDA:1,_ZN51EquinoctialElements_GetSpecificAngularMomentum_TestD2Ev
FNDA:1,_ZN46EquinoctialElements_GetTrueAnomalyAtEpoch_TestC2Ev
FNDA:1,_ZN49EquinoctialElements_GetSpecificOrbitalEnergy_Test8TestBodyEv
FNDA:1,_ZN39EquinoctialElements_TrajectoryType_TestD2Ev
FNDA:1,_ZN45EquinoctialElements_GetTimeToTrueAnomaly_TestC2Ev
FNDA:1,_ZN56EquinoctialElements_GetStateVectorFrom0Eccentricity_TestD2Ev
FNDA:1,_ZN52EquinoctialElements_InitializationFromKeplerian_Test8TestBodyEv
FNDA:1,_ZN40EquinoctialElements_GetEccentricity_Test8TestBodyEv
FNDA:1,_ZN39EquinoctialElements_Initialization_TestD2Ev
FNDA:1,_ZN49EquinoctialElements_GetSpecificOrbitalEnergy_TestD2Ev
FNDA:1,_ZN39EquinoctialElements_TrajectoryType_Test8TestBodyEv
FNDA:1,_ZN45EquinoctialElements_GetPeriapsisArgument_Test8TestBodyEv
FNDA:1,_ZN45EquinoctialElements_GetPeriapsisArgument_TestD2Ev
FNDA:1,_ZN56EquinoctialElements_GetStateVectorFrom0Eccentricity_TestC2Ev
FNDA:1,_ZN39EquinoctialElements_Initialization_Test8TestBodyEv
FNDA:1,_ZN46EquinoctialElements_GetRightAscendingNode_Test8TestBodyEv
FNDA:1,_ZN34EquinoctialElements_GetPeriod_Test8TestBodyEv
FNDA:1,_ZN39EquinoctialElements_GetStateVector_Test8TestBodyEv
FNDA:1,_ZN46EquinoctialElements_GetTrueAnomalyAtEpoch_TestD0Ev
FNDA:1,_ZN45EquinoctialElements_GetTimeToMeanAnomaly_Test8TestBodyEv
FNDA:1,_ZN47EquinoctialElements_GetTrueAnomalyForEpoch_TestD0Ev
FNDA:1,_ZN41EquinoctialElements_GetSemiMajorAxis_TestC2Ev
FNDA:1,_ZN45EquinoctialElements_GetPeriapsisArgument_TestC2Ev
FNDA:1,_ZN39EquinoctialElements_Initialization_TestD0Ev
FNDA:1,_ZN39EquinoctialElements_GetInclination_TestD0Ev
FNDA:1,_ZN47EquinoctialElements_GetTrueAnomalyForEpoch_TestC2Ev
FNDA:1,_ZN45EquinoctialElements_GetTimeToMeanAnomaly_TestC2Ev
FNDA:1,_ZN39EquinoctialElements_Initialization_TestC2Ev
FNDA:1,_ZN49EquinoctialElements_GetSpecificOrbitalEnergy_TestD0Ev
FNDA:1,_ZN47EquinoctialElements_GetMeanAnomalyForEpoch_TestC2Ev
FNDA:1,_ZN47EquinoctialElements_GetTrueAnomalyForEpoch_Test8TestBodyEv
FNDA:1,_ZN42EquinoctialElements_GetISSMeanAnomaly_TestD2Ev
FNDA:1,_ZN42EquinoctialElements_GetISSMeanAnomaly_TestD0Ev
FNDA:1,_ZN45EquinoctialElements_GetTimeToTrueAnomaly_TestD2Ev
FNDA:1,_ZN39EquinoctialElements_TrajectoryType_TestD0Ev
FNDA:1,_ZN46EquinoctialElements_GetMeanAnomalyAtEpoch_TestC2Ev
FNDA:1,_ZN46EquinoctialElements_GetRightAscendingNode_TestD2Ev
FNDA:1,_ZN40EquinoctialElements_GetEccentricity_TestC2Ev
FNF:84
FNH:84
DA:15,4
DA:17,1
DA:20,1
DA:21,1
DA:22,1
DA:23,1
DA:24,1
DA:25,1
DA:26,1
DA:27,1
DA:28,1
DA:31,1
DA:32,1
DA:33,1
DA:34,1
DA:35,1
DA:37,1
DA:39,1
DA:40,1
DA:41,1
DA:42,1
DA:43,1
DA:44,1
DA:45,1
DA:46,1
DA:47,1
DA:48,1
DA:49,1
DA:50,1
DA:51,1
DA:54,4
DA:56,1
DA:59,1
DA:60,1
DA:61,1
DA:62,1
DA:63,1
DA:64,1
DA:65,1
DA:66,1
DA:67,1
DA:70,1
DA:71,1
DA:72,1
DA:73,1
DA:74,1
DA:76,1
DA:78,1
DA:79,1
DA:80,1
DA:81,1
DA:82,1
DA:83,1
DA:84,1
DA:85,1
DA:86,1
DA:87,1
DA:88,1
DA:89,1
DA:90,1
DA:91,1
DA:92,1
DA:93,1
DA:94,1
DA:97,4
DA:99,1
DA:102,1
DA:103,1
DA:104,1
DA:105,1
DA:106,1
DA:107,1
DA:108,1
DA:111,1
DA:112,1
DA:113,1
DA:114,1
DA:115,1
DA:117,1
DA:119,1
DA:122,4
DA:124,1
DA:127,1
DA:128,1
DA:129,1
DA:130,1
DA:131,1
DA:132,1
DA:133,1
DA:134,1
DA:137,1
DA:138,1
DA:139,1
DA:140,1
DA:141,1
DA:143,1
DA:145,1
DA:146,1
DA:148,1
DA:149,1
DA:150,1
DA:151,1
DA:152,1
DA:153,1
DA:156,4
DA:158,1
DA:161,1
DA:162,1
DA:163,1
DA:164,1
DA:165,1
DA:166,1
DA:167,1
DA:168,1
DA:170,1
DA:172,1
DA:174,1
DA:175,1
DA:176,1
DA:177,1
DA:178,1
DA:179,1
DA:180,2
DA:183,4
DA:185,2
DA:188,1
DA:189,1
DA:190,1
DA:191,1
DA:192,1
DA:193,1
DA:194,1
DA:195,2
DA:197,2
DA:199,361
DA:201,360
DA:202,360
DA:205,1
DA:207,4
DA:209,1
DA:212,1
DA:213,1
DA:214,1
DA:215,1
DA:216,1
DA:217,1
DA:218,1
DA:219,1
DA:222,1
DA:223,1
DA:224,1
DA:225,1
DA:226,1
DA:228,1
DA:230,1
DA:232,1
DA:235,4
DA:237,1
DA:240,1
DA:241,1
DA:242,1
DA:243,1
DA:244,1
DA:245,1
DA:246,1
DA:247,1
DA:250,1
DA:251,1
DA:252,1
DA:253,1
DA:254,1
DA:256,1
DA:258,1
DA:260,1
DA:263,4
DA:265,1
DA:268,1
DA:269,1
DA:270,1
DA:271,1
DA:272,1
DA:273,1
DA:274,1
DA:275,1
DA:278,1
DA:279,1
DA:280,1
DA:281,1
DA:282,1
DA:284,1
DA:286,1
DA:288,1
DA:291,4
DA:293,1
DA:296,1
DA:297,1
DA:298,1
DA:299,1
DA:300,1
DA:301,1
DA:302,1
DA:303,1
DA:306,1
DA:307,1
DA:308,1
DA:309,1
DA:310,1
DA:312,1
DA:314,1
DA:316,1
DA:319,4
DA:321,1
DA:324,1
DA:325,1
DA:326,1
DA:327,1
DA:328,1
DA:329,1
DA:330,1
DA:331,1
DA:334,1
DA:335,1
DA:336,1
DA:337,1
DA:338,1
DA:340,1
DA:342,1
DA:344,1
DA:347,4
DA:349,1
DA:353,1
DA:354,1
DA:355,1
DA:356,1
DA:357,1
DA:358,1
DA:359,1
DA:362,1
DA:363,1
DA:364,1
DA:365,1
DA:366,1
DA:368,1
DA:370,1
DA:372,1
DA:375,4
DA:377,1
DA:380,1
DA:381,1
DA:382,1
DA:383,1
DA:384,1
DA:385,1
DA:386,1
DA:389,1
DA:390,1
DA:391,1
DA:392,1
DA:393,1
DA:395,1
DA:397,1
DA:399,1
DA:402,4
DA:404,1
DA:407,1
DA:408,1
DA:409,1
DA:410,1
DA:411,1
DA:412,1
DA:413,1
DA:416,1
DA:417,1
DA:418,1
DA:419,1
DA:420,1
DA:422,1
DA:424,1
DA:426,1
DA:429,4
DA:431,1
DA:434,1
DA:435,1
DA:436,1
DA:437,1
DA:438,1
DA:439,1
DA:440,1
DA:443,1
DA:444,1
DA:445,1
DA:446,1
DA:447,1
DA:449,1
DA:451,1
DA:453,1
DA:456,4
DA:458,1
DA:461,1
DA:462,1
DA:463,1
DA:464,1
DA:465,1
DA:466,1
DA:467,1
DA:470,1
DA:471,1
DA:472,1
DA:473,1
DA:474,1
DA:476,1
DA:478,1
DA:480,1
DA:483,4
DA:485,1
DA:488,1
DA:489,1
DA:490,1
DA:491,1
DA:492,1
DA:493,1
DA:494,1
DA:497,1
DA:498,1
DA:499,1
DA:500,1
DA:501,1
DA:503,1
DA:505,1
DA:507,1
DA:510,4
DA:512,1
DA:515,1
DA:516,1
DA:517,1
DA:518,1
DA:519,1
DA:520,1
DA:521,1
DA:524,1
DA:525,1
DA:526,1
DA:527,1
DA:528,1
DA:530,1
DA:532,1
DA:534,1
DA:537,4
DA:539,1
DA:542,1
DA:543,1
DA:544,1
DA:545,1
DA:546,1
DA:547,1
DA:548,1
DA:551,1
DA:552,1
DA:553,1
DA:554,1
DA:555,1
DA:557,1
DA:559,1
DA:561,1
DA:564,4
DA:566,1
DA:569,1
DA:570,1
DA:571,1
DA:572,1
DA:573,1
DA:574,1
DA:575,1
DA:578,1
DA:579,1
DA:580,1
DA:581,1
DA:582,1
DA:584,1
DA:586,1
DA:588,1
DA:591,4
DA:593,1
DA:596,1
DA:597,1
DA:598,1
DA:599,1
DA:600,1
DA:601,1
DA:602,1
DA:605,1
DA:606,1
DA:607,1
DA:608,1
DA:609,1
DA:611,1
DA:613,1
DA:614,1
DA:615,1
LF:399
LH:399
end_of_record
TN:
SF:/home/usr/Sources/SDK/IO.SDK.Tests/ExceptionsTests.cpp
FN:6,_ZN28Exceptions_SDKException_Test8TestBodyEv
FN:6,_ZN28Exceptions_SDKException_TestD2Ev
FN:6,_ZN28Exceptions_SDKException_TestC2Ev
FN:6,_ZN28Exceptions_SDKException_TestD0Ev
FN:12,_ZN41Exceptions_TooEarlyManeuverException_TestD2Ev
FN:12,_ZN41Exceptions_TooEarlyManeuverException_Test8TestBodyEv
FN:12,_ZN41Exceptions_TooEarlyManeuverException_TestD0Ev
FN:12,_ZN41Exceptions_TooEarlyManeuverException_TestC2Ev
FN:18,_ZN35Exceptions_PropagatorException_Test8TestBodyEv
FN:18,_ZN35Exceptions_PropagatorException_TestD0Ev
FN:18,_ZN35Exceptions_PropagatorException_TestC2Ev
FN:18,_ZN35Exceptions_PropagatorException_TestD2Ev
FNDA:1,_ZN28Exceptions_SDKException_Test8TestBodyEv
FNDA:1,_ZN41Exceptions_TooEarlyManeuverException_Test8TestBodyEv
FNDA:1,_ZN41Exceptions_TooEarlyManeuverException_TestD2Ev
FNDA:1,_ZN35Exceptions_PropagatorException_TestD0Ev
FNDA:1,_ZN35Exceptions_PropagatorException_Test8TestBodyEv
FNDA:1,_ZN28Exceptions_SDKException_TestD0Ev
FNDA:1,_ZN35Exceptions_PropagatorException_TestD2Ev
FNDA:1,_ZN41Exceptions_TooEarlyManeuverException_TestC2Ev
FNDA:1,_ZN35Exceptions_PropagatorException_TestC2Ev
FNDA:1,_ZN28Exceptions_SDKException_TestC2Ev
FNDA:1,_ZN28Exceptions_SDKException_TestD2Ev
FNDA:1,_ZN41Exceptions_TooEarlyManeuverException_TestD0Ev
FNF:12
FNH:12
DA:6,4
DA:8,2
DA:9,1
DA:12,4
DA:14,2
DA:15,1
DA:18,4
DA:20,2
DA:21,1
LF:9
LH:9
end_of_record
TN:
SF:/home/usr/Sources/SDK/IO.SDK.Tests/FuelTankTests.cpp
FN:8,_ZN28FuelTank_Initialization_Test8TestBodyEv
FN:8,_ZN28FuelTank_Initialization_TestC2Ev
FN:8,_ZN28FuelTank_Initialization_TestD2Ev
FN:8,_ZN28FuelTank_Initialization_TestD0Ev
FN:23,_ZN26FuelTank_OverQuantity_Test8TestBodyEv
FN:23,_ZN26FuelTank_OverQuantity_TestC2Ev
FN:23,_ZN26FuelTank_OverQuantity_TestD0Ev
FN:23,_ZN26FuelTank_OverQuantity_TestD2Ev
FN:32,_ZN31FuelTank_EmptySerialNumber_Test8TestBodyEv
FN:32,_ZN31FuelTank_EmptySerialNumber_TestD2Ev
FN:32,_ZN31FuelTank_EmptySerialNumber_TestD0Ev
FN:32,_ZN31FuelTank_EmptySerialNumber_TestC2Ev
FN:41,_ZN29FuelTank_InvalidCapacity_TestD2Ev
FN:41,_ZN29FuelTank_InvalidCapacity_Test8TestBodyEv
FN:41,_ZN29FuelTank_InvalidCapacity_TestD0Ev
FN:41,_ZN29FuelTank_InvalidCapacity_TestC2Ev
FN:50,_ZN29FuelTank_InvalidQuantity_TestD0Ev
FN:50,_ZN29FuelTank_InvalidQuantity_Test8TestBodyEv
FN:50,_ZN29FuelTank_InvalidQuantity_TestC2Ev
FN:50,_ZN29FuelTank_InvalidQuantity_TestD2Ev
FN:59,_ZN32FuelTank_UpdateFuelQuantity_TestC2Ev
FN:59,_ZN32FuelTank_UpdateFuelQuantity_Test8TestBodyEv
FN:59,_ZN32FuelTank_UpdateFuelQuantity_TestD2Ev
FN:59,_ZN32FuelTank_UpdateFuelQuantity_TestD0Ev
FN:82,_ZN21FuelTank_IsEmpty_TestD0Ev
FN:82,_ZN21FuelTank_IsEmpty_TestD2Ev
FN:82,_ZN21FuelTank_IsEmpty_TestC2Ev
FN:82,_ZN21FuelTank_IsEmpty_Test8TestBodyEv
FNDA:1,_ZN28FuelTank_Initialization_TestD0Ev
FNDA:1,_ZN32FuelTank_UpdateFuelQuantity_TestC2Ev
FNDA:1,_ZN28FuelTank_Initialization_TestC2Ev
FNDA:1,_ZN28FuelTank_Initialization_TestD2Ev
FNDA:1,_ZN29FuelTank_InvalidQuantity_Test8TestBodyEv
FNDA:1,_ZN29FuelTank_InvalidCapacity_TestD0Ev
FNDA:1,_ZN31FuelTank_EmptySerialNumber_TestD0Ev
FNDA:1,_ZN26FuelTank_OverQuantity_TestD0Ev
FNDA:1,_ZN29FuelTank_InvalidQuantity_TestD0Ev
FNDA:1,_ZN31FuelTank_EmptySerialNumber_Test8TestBodyEv
FNDA:1,_ZN28FuelTank_Initialization_Test8TestBodyEv
FNDA:1,_ZN29FuelTank_InvalidCapacity_TestD2Ev
FNDA:1,_ZN26FuelTank_OverQuantity_Test8TestBodyEv
FNDA:1,_ZN21FuelTank_IsEmpty_TestD0Ev
FNDA:1,_ZN31FuelTank_EmptySerialNumber_TestD2Ev
FNDA:1,_ZN29FuelTank_InvalidCapacity_Test8TestBodyEv
FNDA:1,_ZN26FuelTank_OverQuantity_TestC2Ev
FNDA:1,_ZN21FuelTank_IsEmpty_Test8TestBodyEv
FNDA:1,_ZN29FuelTank_InvalidQuantity_TestD2Ev
FNDA:1,_ZN21FuelTank_IsEmpty_TestC2Ev
FNDA:1,_ZN26FuelTank_OverQuantity_TestD2Ev
FNDA:1,_ZN29FuelTank_InvalidQuantity_TestC2Ev
FNDA:1,_ZN32FuelTank_UpdateFuelQuantity_TestD2Ev
FNDA:1,_ZN32FuelTank_UpdateFuelQuantity_Test8TestBodyEv
FNDA:1,_ZN21FuelTank_IsEmpty_TestD2Ev
FNDA:1,_ZN29FuelTank_InvalidCapacity_TestC2Ev
FNDA:1,_ZN32FuelTank_UpdateFuelQuantity_TestD0Ev
FNDA:1,_ZN31FuelTank_EmptySerialNumber_TestC2Ev
FNF:28
FNH:28
DA:8,4
DA:10,1
DA:11,2
DA:12,1
DA:13,3
DA:14,1
DA:15,1
DA:16,1
DA:17,1
DA:18,1
DA:19,2
DA:20,1
DA:23,4
DA:25,1
DA:26,2
DA:27,1
DA:28,3
DA:29,3
DA:32,4
DA:34,1
DA:35,2
DA:36,1
DA:37,3
DA:38,3
DA:41,4
DA:43,1
DA:44,2
DA:45,1
DA:46,3
DA:47,3
DA:50,4
DA:52,1
DA:53,2
DA:54,1
DA:55,3
DA:56,3
DA:59,4
DA:61,1
DA:62,2
DA:63,1
DA:64,3
DA:65,1
DA:66,1
DA:68,1
DA:69,1
DA:70,1
DA:71,1
DA:73,1
DA:74,1
DA:76,1
DA:77,1
DA:79,1
DA:82,4
DA:84,1
DA:85,2
DA:86,1
DA:87,3
DA:88,1
DA:89,1
DA:91,1
DA:92,1
LF:61
LH:61
end_of_record
TN:
SF:/home/usr/Sources/SDK/IO.SDK.Tests/GeodeticTests.cpp
FN:4,_ZN28Geodetic_Initialization_Test8TestBodyEv
FN:4,_ZN28Geodetic_Initialization_TestD0Ev
FN:4,_ZN28Geodetic_Initialization_TestD2Ev
FN:4,_ZN28Geodetic_Initialization_TestC2Ev
FNDA:1,_ZN28Geodetic_Initialization_TestC2Ev
FNDA:1,_ZN28Geodetic_Initialization_TestD2Ev
FNDA:1,_ZN28Geodetic_Initialization_TestD0Ev
FNDA:1,_ZN28Geodetic_Initialization_Test8TestBodyEv
FNF:4
FNH:4
DA:4,4
DA:6,1
DA:8,1
DA:9,1
DA:10,1
LF:5
LH:5
end_of_record
TN:
SF:/home/usr/Sources/SDK/IO.SDK.Tests/GravityForceTests.cpp
FN:11,_ZN30GravityForce_ComputeForce_TestD0Ev
FN:11,_ZN30GravityForce_ComputeForce_TestD2Ev
FN:11,_ZN30GravityForce_ComputeForce_Test8TestBodyEv
FN:11,_ZN30GravityForce_ComputeForce_TestC2Ev
FN:17,_ZN29GravityForce_ApplyToBody_Test8TestBodyEv
FN:17,_ZN29GravityForce_ApplyToBody_TestC2Ev
FN:17,_ZN29GravityForce_ApplyToBody_TestD0Ev
FN:17,_ZN29GravityForce_ApplyToBody_TestD2Ev
FN:29,_ZN43GravityForce_ApplyToBodyWithSatellites_Test8TestBodyEv
FN:29,_ZN43GravityForce_ApplyToBodyWithSatellites_TestC2Ev
FN:29,_ZN43GravityForce_ApplyToBodyWithSatellites_TestD0Ev
FN:29,_ZN43GravityForce_ApplyToBodyWithSatellites_TestD2Ev
FNDA:1,_ZN30GravityForce_ComputeForce_TestD0Ev
FNDA:1,_ZN30GravityForce_ComputeForce_TestD2Ev
FNDA:1,_ZN29GravityForce_ApplyToBody_Test8TestBodyEv
FNDA:1,_ZN30GravityForce_ComputeForce_Test8TestBodyEv
FNDA:1,_ZN43GravityForce_ApplyToBodyWithSatellites_TestC2Ev
FNDA:1,_ZN43GravityForce_ApplyToBodyWithSatellites_Test8TestBodyEv
FNDA:1,_ZN29GravityForce_ApplyToBody_TestD0Ev
FNDA:1,_ZN43GravityForce_ApplyToBodyWithSatellites_TestD2Ev
FNDA:1,_ZN29GravityForce_ApplyToBody_TestD2Ev
FNDA:1,_ZN30GravityForce_ComputeForce_TestC2Ev
FNDA:1,_ZN29GravityForce_ApplyToBody_TestC2Ev
FNDA:1,_ZN43GravityForce_ApplyToBodyWithSatellites_TestD0Ev
FNF:12
FNH:12
DA:11,4
DA:13,1
DA:14,1
DA:17,4
DA:19,1
DA:20,1
DA:21,2
DA:22,1
DA:23,3
DA:25,1
DA:26,1
DA:29,4
DA:31,1
DA:32,2
DA:33,1
DA:38,1
DA:43,1
DA:44,1
DA:45,1
DA:46,3
DA:48,1
DA:50,1
LF:22
LH:22
end_of_record
TN:
SF:/home/usr/Sources/SDK/IO.SDK.Tests/HelpersTests.cpp
FN:5,_ZN19Helpers_TypeOf_TestD2Ev
FN:5,_ZN19Helpers_TypeOf_TestD0Ev
FN:5,_ZN19Helpers_TypeOf_TestC2Ev
FN:5,_ZN19Helpers_TypeOf_Test8TestBodyEv
FNDA:1,_ZN19Helpers_TypeOf_TestD2Ev
FNDA:1,_ZN19Helpers_TypeOf_TestD0Ev
FNDA:1,_ZN19Helpers_TypeOf_Test8TestBodyEv
FNDA:1,_ZN19Helpers_TypeOf_TestC2Ev
FNF:4
FNH:4
DA:5,4
DA:7,2
DA:8,1
DA:9,1
DA:11,1
DA:12,1
DA:13,1
LF:7
LH:7
end_of_record
TN:
SF:/home/usr/Sources/SDK/IO.SDK.Tests/HorizontalCoordinatesTests.cpp
FN:4,_ZN41HorizontalCoordinates_Initialization_Test8TestBodyEv
FN:4,_ZN41HorizontalCoordinates_Initialization_TestD2Ev
FN:4,_ZN41HorizontalCoordinates_Initialization_TestC2Ev
FN:4,_ZN41HorizontalCoordinates_Initialization_TestD0Ev
FNDA:1,_ZN41HorizontalCoordinates_Initialization_TestD2Ev
FNDA:1,_ZN41HorizontalCoordinates_Initialization_TestD0Ev
FNDA:1,_ZN41HorizontalCoordinates_Initialization_TestC2Ev
FNDA:1,_ZN41HorizontalCoordinates_Initialization_Test8TestBodyEv
FNF:4
FNH:4
DA:4,4
DA:6,1
DA:7,1
DA:8,1
DA:9,1
LF:5
LH:5
end_of_record
TN:
SF:/home/usr/Sources/SDK/IO.SDK.Tests/IlluminationTests.cpp
FN:9,_ZN32Illumination_Initialization_TestC2Ev
FN:9,_ZN32Illumination_Initialization_TestD2Ev
FN:9,_ZN32Illumination_Initialization_TestD0Ev
FN:9,_ZN32Illumination_Initialization_Test8TestBodyEv
FN:23,_ZN22Illumination_Copy_TestC2Ev
FN:23,_ZN22Illumination_Copy_TestD0Ev
FN:23,_ZN22Illumination_Copy_Test8TestBodyEv
FN:23,_ZN22Illumination_Copy_TestD2Ev
FN:40,_ZN23Illumination_Types_TestD0Ev
FN:40,_ZN23Illumination_Types_TestC2Ev
FN:40,_ZN23Illumination_Types_Test8TestBodyEv
FN:40,_ZN23Illumination_Types_TestD2Ev
FNDA:1,_ZN22Illumination_Copy_TestD0Ev
FNDA:1,_ZN23Illumination_Types_TestD2Ev
FNDA:1,_ZN23Illumination_Types_Test8TestBodyEv
FNDA:1,_ZN22Illumination_Copy_TestD2Ev
FNDA:1,_ZN22Illumination_Copy_Test8TestBodyEv
FNDA:1,_ZN22Illumination_Copy_TestC2Ev
FNDA:1,_ZN23Illumination_Types_TestC2Ev
FNDA:1,_ZN32Illumination_Initialization_TestD0Ev
FNDA:1,_ZN32Illumination_Initialization_TestD2Ev
FNDA:1,_ZN32Illumination_Initialization_Test8TestBodyEv
FNDA:1,_ZN23Illumination_Types_TestD0Ev
FNDA:1,_ZN32Illumination_Initialization_TestC2Ev
FNF:12
FNH:12
DA:9,4
DA:11,1
DA:12,1
DA:13,1
DA:14,1
DA:15,1
DA:16,1
DA:17,1
DA:18,1
DA:19,1
DA:20,1
DA:23,4
DA:25,1
DA:26,1
DA:27,1
DA:28,1
DA:30,1
DA:31,1
DA:32,1
DA:33,1
DA:34,1
DA:35,1
DA:36,1
DA:37,1
DA:40,4
DA:42,1
DA:43,1
DA:44,1
LF:28
LH:28
end_of_record
TN:
SF:/home/usr/Sources/SDK/IO.SDK.Tests/InertialFramesTestscpp.cpp
FN:11,_ZN28InertialFrames_ToString_TestD0Ev
FN:11,_ZN28InertialFrames_ToString_Test8TestBodyEv
FN:11,_ZN28InertialFrames_ToString_TestC2Ev
FN:11,_ZN28InertialFrames_ToString_TestD2Ev
FN:18,_ZN27InertialFrames_GetName_TestC2Ev
FN:18,_ZN27InertialFrames_GetName_Test8TestBodyEv
FN:18,_ZN27InertialFrames_GetName_TestD0Ev
FN:18,_ZN27InertialFrames_GetName_TestD2Ev
FN:25,_ZN25InertialFrames_Equal_TestC2Ev
FN:25,_ZN25InertialFrames_Equal_TestD0Ev
FN:25,_ZN25InertialFrames_Equal_TestD2Ev
FN:25,_ZN25InertialFrames_Equal_Test8TestBodyEv
FN:30,_ZN28InertialFrames_NotEqual_TestD2Ev
FN:30,_ZN28InertialFrames_NotEqual_Test8TestBodyEv
FN:30,_ZN28InertialFrames_NotEqual_TestC2Ev
FN:30,_ZN28InertialFrames_NotEqual_TestD0Ev
FN:35,_ZN30InertialFrames_ToFrame6x6_TestC2Ev
FN:35,_ZN30InertialFrames_ToFrame6x6_TestD0Ev
FN:35,_ZN30InertialFrames_ToFrame6x6_Test8TestBodyEv
FN:35,_ZN30InertialFrames_ToFrame6x6_TestD2Ev
FN:82,_ZN35InertialFrames_TransformVector_TestD0Ev
FN:82,_ZN35InertialFrames_TransformVector_TestC2Ev
FN:82,_ZN35InertialFrames_TransformVector_TestD2Ev
FN:82,_ZN35InertialFrames_TransformVector_Test8TestBodyEv
FNDA:1,_ZN30InertialFrames_ToFrame6x6_Test8TestBodyEv
FNDA:1,_ZN35InertialFrames_TransformVector_TestD2Ev
FNDA:1,_ZN28InertialFrames_NotEqual_TestC2Ev
FNDA:1,_ZN35InertialFrames_TransformVector_TestC2Ev
FNDA:1,_ZN28InertialFrames_ToString_Test8TestBodyEv
FNDA:1,_ZN27InertialFrames_GetName_TestC2Ev
FNDA:1,_ZN27InertialFrames_GetName_Test8TestBodyEv
FNDA:1,_ZN25InertialFrames_Equal_TestD0Ev
FNDA:1,_ZN27InertialFrames_GetName_TestD0Ev
FNDA:1,_ZN25InertialFrames_Equal_TestD2Ev
FNDA:1,_ZN27InertialFrames_GetName_TestD2Ev
FNDA:1,_ZN25InertialFrames_Equal_Test8TestBodyEv
FNDA:1,_ZN28InertialFrames_ToString_TestD2Ev
FNDA:1,_ZN35InertialFrames_TransformVector_Test8TestBodyEv
FNDA:1,_ZN30InertialFrames_ToFrame6x6_TestD2Ev
FNDA:1,_ZN28InertialFrames_ToString_TestC2Ev
FNDA:1,_ZN28InertialFrames_NotEqual_TestD0Ev
FNDA:1,_ZN28InertialFrames_NotEqual_TestD2Ev
FNDA:1,_ZN35InertialFrames_TransformVector_TestD0Ev
FNDA:1,_ZN30InertialFrames_ToFrame6x6_TestC2Ev
FNDA:1,_ZN28InertialFrames_ToString_TestD0Ev
FNDA:1,_ZN28InertialFrames_NotEqual_Test8TestBodyEv
FNDA:1,_ZN25InertialFrames_Equal_TestC2Ev
FNDA:1,_ZN30InertialFrames_ToFrame6x6_TestD0Ev
FNF:24
FNH:24
DA:11,4
DA:13,1
DA:14,1
DA:15,1
DA:18,4
DA:20,2
DA:21,2
DA:22,2
DA:25,4
DA:27,1
DA:30,4
DA:32,1
DA:35,4
DA:37,1
DA:39,1
DA:40,1
DA:41,1
DA:42,1
DA:43,1
DA:44,1
DA:46,1
DA:47,1
DA:48,1
DA:49,1
DA:50,1
DA:51,1
DA:53,1
DA:54,1
DA:55,1
DA:56,1
DA:57,1
DA:58,1
DA:60,1
DA:61,1
DA:62,1
DA:63,1
DA:64,1
DA:65,1
DA:67,1
DA:68,1
DA:69,1
DA:70,1
DA:71,1
DA:72,1
DA:74,1
DA:75,1
DA:76,1
DA:77,1
DA:78,1
DA:79,1
DA:82,4
DA:84,1
DA:85,2
DA:86,1
DA:89,1
DA:91,1
DA:92,1
DA:93,1
LF:58
LH:58
end_of_record
TN:
SF:/home/usr/Sources/SDK/IO.SDK.Tests/InstrumentTests.cpp
FN:24,_ZN30Instrument_Initialization_TestC2Ev
FN:24,_ZN30Instrument_Initialization_Test8TestBodyEv
FN:24,_ZN30Instrument_Initialization_TestD2Ev
FN:24,_ZN30Instrument_Initialization_TestD0Ev
FN:50,_ZN21Instrument_Frame_TestC2Ev
FN:50,_ZN21Instrument_Frame_Test8TestBodyEv
FN:50,_ZN21Instrument_Frame_TestD2Ev
FN:50,_ZN21Instrument_Frame_TestD0Ev
FN:101,_ZN30Instrument_CircularKernel_Test8TestBodyEv
FN:101,_ZN30Instrument_CircularKernel_TestC2Ev
FN:101,_ZN30Instrument_CircularKernel_TestD2Ev
FN:101,_ZN30Instrument_CircularKernel_TestD0Ev
FN:145,_ZN33Instrument_RectangularKernel_TestD0Ev
FN:145,_ZN33Instrument_RectangularKernel_Test8TestBodyEv
FN:145,_ZN33Instrument_RectangularKernel_TestD2Ev
FN:145,_ZN33Instrument_RectangularKernel_TestC2Ev
FN:189,_ZN32Instrument_EllipticalKernel_TestD2Ev
FN:189,_ZN32Instrument_EllipticalKernel_Test8TestBodyEv
FN:189,_ZN32Instrument_EllipticalKernel_TestD0Ev
FN:189,_ZN32Instrument_EllipticalKernel_TestC2Ev
FN:233,_ZN26Instrument_Boundaries_Test8TestBodyEv
FN:233,_ZN26Instrument_Boundaries_TestD2Ev
FN:233,_ZN26Instrument_Boundaries_TestC2Ev
FN:233,_ZN26Instrument_Boundaries_TestD0Ev
FN:260,_ZN25Instrument_Boresight_TestD2Ev
FN:260,_ZN25Instrument_Boresight_Test8TestBodyEv
FN:260,_ZN25Instrument_Boresight_TestD0Ev
FN:260,_ZN25Instrument_Boresight_TestC2Ev
FN:287,_ZN24Instrument_FOVShape_TestD0Ev
FN:287,_ZN24Instrument_FOVShape_TestD2Ev
FN:287,_ZN24Instrument_FOVShape_Test8TestBodyEv
FN:287,_ZN24Instrument_FOVShape_TestC2Ev
FN:312,_ZN24Instrument_GetBadId_Test8TestBodyEv
FN:312,_ZN24Instrument_GetBadId_TestD2Ev
FN:312,_ZN24Instrument_GetBadId_TestC2Ev
FN:312,_ZN24Instrument_GetBadId_TestD0Ev
FN:334,_ZN27Instrument_CreateBadId_Test8TestBodyEv
FN:334,_ZN27Instrument_CreateBadId_TestC2Ev
FN:334,_ZN27Instrument_CreateBadId_TestD0Ev
FN:334,_ZN27Instrument_CreateBadId_TestD2Ev
FN:355,_ZN29Instrument_AlreadyExists_TestD0Ev
FN:355,_ZN29Instrument_AlreadyExists_TestC2Ev
FN:355,_ZN29Instrument_AlreadyExists_TestD2Ev
FN:355,_ZN29Instrument_AlreadyExists_Test8TestBodyEv
FN:376,_ZN37Instrument_FindWindowFieldOfView_TestD2Ev
FN:376,_ZN37Instrument_FindWindowFieldOfView_Test8TestBodyEv
FN:376,_ZN37Instrument_FindWindowFieldOfView_TestC2Ev
FN:376,_ZN37Instrument_FindWindowFieldOfView_TestD0Ev
FNDA:1,_ZN32Instrument_EllipticalKernel_TestC2Ev
FNDA:1,_ZN30Instrument_Initialization_TestD2Ev
FNDA:1,_ZN27Instrument_CreateBadId_TestD2Ev
FNDA:1,_ZN30Instrument_CircularKernel_TestD0Ev
FNDA:1,_ZN33Instrument_RectangularKernel_TestC2Ev
FNDA:1,_ZN21Instrument_Frame_TestD0Ev
FNDA:1,_ZN25Instrument_Boresight_TestC2Ev
FNDA:1,_ZN24Instrument_GetBadId_TestD0Ev
FNDA:1,_ZN25Instrument_Boresight_Test8TestBodyEv
FNDA:1,_ZN24Instrument_FOVShape_Test8TestBodyEv
FNDA:1,_ZN24Instrument_FOVShape_TestC2Ev
FNDA:1,_ZN25Instrument_Boresight_TestD0Ev
FNDA:1,_ZN30Instrument_Initialization_TestD0Ev
FNDA:1,_ZN21Instrument_Frame_TestD2Ev
FNDA:1,_ZN37Instrument_FindWindowFieldOfView_TestD0Ev
FNDA:1,_ZN33Instrument_RectangularKernel_TestD2Ev
FNDA:1,_ZN26Instrument_Boundaries_TestC2Ev
FNDA:1,_ZN32Instrument_EllipticalKernel_Test8TestBodyEv
FNDA:1,_ZN32Instrument_EllipticalKernel_TestD0Ev
FNDA:1,_ZN26Instrument_Boundaries_TestD0Ev
FNDA:1,_ZN30Instrument_CircularKernel_TestD2Ev
FNDA:1,_ZN24Instrument_FOVShape_TestD2Ev
FNDA:1,_ZN24Instrument_GetBadId_TestC2Ev
FNDA:1,_ZN30Instrument_Initialization_Test8TestBodyEv
FNDA:1,_ZN27Instrument_CreateBadId_TestD0Ev
FNDA:1,_ZN33Instrument_RectangularKernel_Test8TestBodyEv
FNDA:1,_ZN25Instrument_Boresight_TestD2Ev
FNDA:1,_ZN29Instrument_AlreadyExists_TestD2Ev
FNDA:1,_ZN37Instrument_FindWindowFieldOfView_Test8TestBodyEv
FNDA:1,_ZN29Instrument_AlreadyExists_Test8TestBodyEv
FNDA:1,_ZN29Instrument_AlreadyExists_TestC2Ev
FNDA:1,_ZN21Instrument_Frame_Test8TestBodyEv
FNDA:1,_ZN37Instrument_FindWindowFieldOfView_TestC2Ev
FNDA:1,_ZN32Instrument_EllipticalKernel_TestD2Ev
FNDA:1,_ZN26Instrument_Boundaries_TestD2Ev
FNDA:1,_ZN27Instrument_CreateBadId_TestC2Ev
FNDA:1,_ZN27Instrument_CreateBadId_Test8TestBodyEv
FNDA:1,_ZN33Instrument_RectangularKernel_TestD0Ev
FNDA:1,_ZN24Instrument_GetBadId_Test8TestBodyEv
FNDA:1,_ZN21Instrument_Frame_TestC2Ev
FNDA:1,_ZN30Instrument_Initialization_TestC2Ev
FNDA:1,_ZN24Instrument_GetBadId_TestD2Ev
FNDA:1,_ZN30Instrument_CircularKernel_Test8TestBodyEv
FNDA:1,_ZN26Instrument_Boundaries_Test8TestBodyEv
FNDA:1,_ZN29Instrument_AlreadyExists_TestD0Ev
FNDA:1,_ZN30Instrument_CircularKernel_TestC2Ev
FNDA:1,_ZN24Instrument_FOVShape_TestD0Ev
FNDA:1,_ZN37Instrument_FindWindowFieldOfView_TestD2Ev
FNF:48
FNH:48
DA:24,4
DA:26,2
DA:27,1
DA:29,1
DA:32,1
DA:33,1
DA:34,1
DA:36,1
DA:37,2
DA:38,1
DA:39,3
DA:41,1
DA:42,1
DA:44,1
DA:45,1
DA:46,2
DA:47,1
DA:50,4
DA:52,2
DA:53,1
DA:55,1
DA:58,1
DA:59,1
DA:60,1
DA:62,1
DA:63,2
DA:64,1
DA:65,3
DA:67,1
DA:69,2
DA:70,1
DA:72,2
DA:73,1
DA:75,2
DA:76,1
DA:78,2
DA:79,1
DA:81,2
DA:82,1
DA:84,2
DA:85,1
DA:87,2
DA:88,1
DA:90,2
DA:91,1
DA:92,1
DA:93,1
DA:95,2
DA:96,1
DA:97,1
DA:98,1
DA:101,4
DA:103,2
DA:104,1
DA:106,1
DA:109,1
DA:110,1
DA:111,1
DA:113,1
DA:114,2
DA:115,1
DA:116,3
DA:117,1
DA:119,2
DA:120,1
DA:122,2
DA:123,1
DA:125,2
DA:126,1
DA:128,2
DA:129,1
DA:130,1
DA:131,1
DA:133,2
DA:134,1
DA:135,1
DA:136,1
DA:138,2
DA:139,1
DA:141,2
DA:142,1
DA:145,4
DA:147,2
DA:148,1
DA:150,1
DA:153,1
DA:154,1
DA:155,1
DA:157,1
DA:158,2
DA:159,1
DA:160,3
DA:161,1
DA:163,2
DA:164,1
DA:166,2
DA:167,1
DA:169,2
DA:170,1
DA:172,2
DA:173,1
DA:174,1
DA:175,1
DA:177,2
DA:178,1
DA:179,1
DA:180,1
DA:182,2
DA:183,1
DA:185,2
DA:186,1
DA:189,4
DA:191,2
DA:192,1
DA:194,1
DA:197,1
DA:198,1
DA:199,1
DA:201,1
DA:202,2
DA:203,1
DA:204,3
DA:205,1
DA:207,2
DA:208,1
DA:210,2
DA:211,1
DA:213,2
DA:214,1
DA:216,2
DA:217,1
DA:218,1
DA:219,1
DA:221,2
DA:222,1
DA:223,1
DA:224,1
DA:226,2
DA:227,1
DA:229,2
DA:230,1
DA:233,4
DA:235,2
DA:236,1
DA:238,1
DA:241,1
DA:242,1
DA:243,1
DA:245,1
DA:246,2
DA:247,1
DA:248,3
DA:249,1
DA:251,1
DA:253,1
DA:255,1
DA:256,1
DA:257,1
DA:260,4
DA:262,2
DA:263,1
DA:265,1
DA:268,1
DA:269,1
DA:270,1
DA:272,1
DA:273,2
DA:274,1
DA:275,3
DA:276,1
DA:278,1
DA:280,1
DA:282,1
DA:283,1
DA:284,1
DA:287,4
DA:289,2
DA:290,1
DA:292,1
DA:295,1
DA:296,1
DA:297,1
DA:299,1
DA:300,2
DA:301,1
DA:302,3
DA:303,1
DA:305,1
DA:307,1
DA:309,1
DA:312,4
DA:314,2
DA:315,1
DA:317,1
DA:320,1
DA:321,1
DA:322,1
DA:324,1
DA:325,2
DA:326,1
DA:327,3
DA:328,1
DA:331,1
DA:334,4
DA:336,2
DA:337,1
DA:339,1
DA:342,1
DA:343,1
DA:344,1
DA:346,1
DA:347,2
DA:348,1
DA:349,3
DA:352,3
DA:355,4
DA:357,2
DA:358,1
DA:360,0
DA:363,1
DA:364,1
DA:365,1
DA:367,1
DA:368,2
DA:369,1
DA:370,3
DA:372,1
DA:373,3
DA:376,4
DA:380,2
DA:381,1
DA:383,1
DA:386,1
DA:387,1
DA:388,1
DA:390,1
DA:391,1
DA:392,1
DA:393,2
DA:395,1
DA:396,3
DA:398,1
DA:399,1
DA:402,1
DA:403,1
DA:405,1
DA:407,1
DA:408,1
DA:409,1
DA:411,2
DA:413,1
DA:416,1
DA:417,1
DA:418,2
DA:419,1
DA:420,1
DA:422,1
DA:424,647
DA:426,646
DA:427,646
DA:428,646
DA:429,646
DA:432,1
DA:434,1
DA:437,2
DA:438,1
DA:440,2
DA:441,1
DA:444,2
DA:446,1
DA:447,2
DA:448,2
LF:272
LH:271
end_of_record
TN:
SF:/home/usr/Sources/SDK/IO.SDK.Tests/LatitudinalTests.cpp
FN:4,_ZN31Latitudinal_Initialization_Test8TestBodyEv
FN:4,_ZN31Latitudinal_Initialization_TestD0Ev
FN:4,_ZN31Latitudinal_Initialization_TestD2Ev
FN:4,_ZN31Latitudinal_Initialization_TestC2Ev
FNDA:1,_ZN31Latitudinal_Initialization_Test8TestBodyEv
FNDA:1,_ZN31Latitudinal_Initialization_TestD2Ev
FNDA:1,_ZN31Latitudinal_Initialization_TestD0Ev
FNDA:1,_ZN31Latitudinal_Initialization_TestC2Ev
FNF:4
FNH:4
DA:4,4
DA:6,1
DA:7,1
DA:8,1
DA:9,1
LF:5
LH:5
end_of_record
TN:
SF:/home/usr/Sources/SDK/IO.SDK.Tests/LaunchSiteTests.cpp
FN:9,_ZN26LaunchSite_AddAzimuth_TestD0Ev
FN:9,_ZN26LaunchSite_AddAzimuth_TestD2Ev
FN:9,_ZN26LaunchSite_AddAzimuth_TestC2Ev
FN:9,_ZN26LaunchSite_AddAzimuth_Test8TestBodyEv
FN:21,_ZN28LaunchSite_ClearAzimuth_Test8TestBodyEv
FN:21,_ZN28LaunchSite_ClearAzimuth_TestD2Ev
FN:21,_ZN28LaunchSite_ClearAzimuth_TestC2Ev
FN:21,_ZN28LaunchSite_ClearAzimuth_TestD0Ev
FN:35,_ZN38LaunchSite_IsAzimuthLaunchAllowed_TestC2Ev
FN:35,_ZN38LaunchSite_IsAzimuthLaunchAllowed_Test8TestBodyEv
FN:35,_ZN38LaunchSite_IsAzimuthLaunchAllowed_TestD2Ev
FN:35,_ZN38LaunchSite_IsAzimuthLaunchAllowed_TestD0Ev
FNDA:1,_ZN26LaunchSite_AddAzimuth_TestD2Ev
FNDA:1,_ZN38LaunchSite_IsAzimuthLaunchAllowed_Test8TestBodyEv
FNDA:1,_ZN28LaunchSite_ClearAzimuth_Test8TestBodyEv
FNDA:1,_ZN38LaunchSite_IsAzimuthLaunchAllowed_TestC2Ev
FNDA:1,_ZN26LaunchSite_AddAzimuth_TestD0Ev
FNDA:1,_ZN38LaunchSite_IsAzimuthLaunchAllowed_TestD0Ev
FNDA:1,_ZN28LaunchSite_ClearAzimuth_TestD0Ev
FNDA:1,_ZN26LaunchSite_AddAzimuth_Test8TestBodyEv
FNDA:1,_ZN28LaunchSite_ClearAzimuth_TestC2Ev
FNDA:1,_ZN38LaunchSite_IsAzimuthLaunchAllowed_TestD2Ev
FNDA:1,_ZN28LaunchSite_ClearAzimuth_TestD2Ev
FNDA:1,_ZN26LaunchSite_AddAzimuth_TestC2Ev
FNF:12
FNH:12
DA:9,4
DA:11,1
DA:12,1
DA:13,2
DA:14,1
DA:15,1
DA:17,1
DA:18,1
DA:21,4
DA:23,1
DA:24,1
DA:25,2
DA:26,1
DA:27,1
DA:29,1
DA:31,1
DA:32,1
DA:35,4
DA:37,1
DA:38,1
DA:39,2
DA:40,1
DA:41,1
DA:43,1
DA:44,1
LF:25
LH:25
end_of_record
TN:
SF:/home/usr/Sources/SDK/IO.SDK.Tests/LaunchTests.cpp
FN:15,_ZN36Launch_InertialAscendingAzimuth_TestC2Ev
FN:15,_ZN36Launch_InertialAscendingAzimuth_Test8TestBodyEv
FN:15,_ZN36Launch_InertialAscendingAzimuth_TestD0Ev
FN:15,_ZN36Launch_InertialAscendingAzimuth_TestD2Ev
FN:30,_ZN37Launch_InertialDescendingAzimuth_Test8TestBodyEv
FN:30,_ZN37Launch_InertialDescendingAzimuth_TestD2Ev
FN:30,_ZN37Launch_InertialDescendingAzimuth_TestC2Ev
FN:30,_ZN37Launch_InertialDescendingAzimuth_TestD0Ev
FN:45,_ZN37Launch_InertialInsertionVelocity_Test8TestBodyEv
FN:45,_ZN37Launch_InertialInsertionVelocity_TestC2Ev
FN:45,_ZN37Launch_InertialInsertionVelocity_TestD2Ev
FN:45,_ZN37Launch_InertialInsertionVelocity_TestD0Ev
FN:60,_ZN39Launch_NonInertialAscendingAzimuth_TestD2Ev
FN:60,_ZN39Launch_NonInertialAscendingAzimuth_TestC2Ev
FN:60,_ZN39Launch_NonInertialAscendingAzimuth_TestD0Ev
FN:60,_ZN39Launch_NonInertialAscendingAzimuth_Test8TestBodyEv
FN:75,_ZN40Launch_NonInertialDescendingAzimuth_Test8TestBodyEv
FN:75,_ZN40Launch_NonInertialDescendingAzimuth_TestC2Ev
FN:75,_ZN40Launch_NonInertialDescendingAzimuth_TestD0Ev
FN:75,_ZN40Launch_NonInertialDescendingAzimuth_TestD2Ev
FN:90,_ZN40Launch_NonInertialInsertionVelocity_TestD0Ev
FN:90,_ZN40Launch_NonInertialInsertionVelocity_TestC2Ev
FN:90,_ZN40Launch_NonInertialInsertionVelocity_TestD2Ev
FN:90,_ZN40Launch_NonInertialInsertionVelocity_Test8TestBodyEv
FN:105,_ZN49Launch_RetrogradeNonInertialAscendingAzimuth_TestD0Ev
FN:105,_ZN49Launch_RetrogradeNonInertialAscendingAzimuth_Test8TestBodyEv
FN:105,_ZN49Launch_RetrogradeNonInertialAscendingAzimuth_TestC2Ev
FN:105,_ZN49Launch_RetrogradeNonInertialAscendingAzimuth_TestD2Ev
FN:120,_ZN46Launch_RetrogradeInertialAscendingAzimuth_TestD0Ev
FN:120,_ZN46Launch_RetrogradeInertialAscendingAzimuth_TestC2Ev
FN:120,_ZN46Launch_RetrogradeInertialAscendingAzimuth_TestD2Ev
FN:120,_ZN46Launch_RetrogradeInertialAscendingAzimuth_Test8TestBodyEv
FN:135,_ZN50Launch_RetrogradeNonInertialInsertionVelocity_Test8TestBodyEv
FN:135,_ZN50Launch_RetrogradeNonInertialInsertionVelocity_TestC2Ev
FN:135,_ZN50Launch_RetrogradeNonInertialInsertionVelocity_TestD0Ev
FN:135,_ZN50Launch_RetrogradeNonInertialInsertionVelocity_TestD2Ev
FN:150,_ZN47Launch_RetrogradeInertialInsertionVelocity_TestC2Ev
FN:150,_ZN47Launch_RetrogradeInertialInsertionVelocity_TestD2Ev
FN:150,_ZN47Launch_RetrogradeInertialInsertionVelocity_TestD0Ev
FN:150,_ZN47Launch_RetrogradeInertialInsertionVelocity_Test8TestBodyEv
FN:165,_ZN28Launch_GetLaunchWindows_TestD2Ev
FN:165,_ZN28Launch_GetLaunchWindows_Test8TestBodyEv
FN:165,_ZN28Launch_GetLaunchWindows_TestC2Ev
FN:165,_ZN28Launch_GetLaunchWindows_TestD0Ev
FN:201,_ZN33Launch_GetLaunchWindowsByDay_Test8TestBodyEv
FN:201,_ZN33Launch_GetLaunchWindowsByDay_TestD0Ev
FN:201,_ZN33Launch_GetLaunchWindowsByDay_TestD2Ev
FN:201,_ZN33Launch_GetLaunchWindowsByDay_TestC2Ev
FN:229,_ZN48Launch_GetSouthLaunchSiteLaunchWindowsByDay_TestD2Ev
FN:229,_ZN48Launch_GetSouthLaunchSiteLaunchWindowsByDay_TestC2Ev
FN:229,_ZN48Launch_GetSouthLaunchSiteLaunchWindowsByDay_TestD0Ev
FN:229,_ZN48Launch_GetSouthLaunchSiteLaunchWindowsByDay_Test8TestBodyEv
FN:257,_ZN43Launch_GetSouthLaunchSiteLaunchWindows_TestD2Ev
FN:257,_ZN43Launch_GetSouthLaunchSiteLaunchWindows_TestC2Ev
FN:257,_ZN43Launch_GetSouthLaunchSiteLaunchWindows_TestD0Ev
FN:257,_ZN43Launch_GetSouthLaunchSiteLaunchWindows_Test8TestBodyEv
FNDA:1,_ZN37Launch_InertialInsertionVelocity_Test8TestBodyEv
FNDA:1,_ZN28Launch_GetLaunchWindows_Test8TestBodyEv
FNDA:1,_ZN46Launch_RetrogradeInertialAscendingAzimuth_TestD0Ev
FNDA:1,_ZN40Launch_NonInertialDescendingAzimuth_Test8TestBodyEv
FNDA:1,_ZN36Launch_InertialAscendingAzimuth_TestC2Ev
FNDA:1,_ZN49Launch_RetrogradeNonInertialAscendingAzimuth_Test8TestBodyEv
FNDA:1,_ZN49Launch_RetrogradeNonInertialAscendingAzimuth_TestD0Ev
FNDA:1,_ZN28Launch_GetLaunchWindows_TestD2Ev
FNDA:1,_ZN50Launch_RetrogradeNonInertialInsertionVelocity_Test8TestBodyEv
FNDA:1,_ZN37Launch_InertialDescendingAzimuth_Test8TestBodyEv
FNDA:1,_ZN36Launch_InertialAscendingAzimuth_TestD0Ev
FNDA:1,_ZN39Launch_NonInertialAscendingAzimuth_TestD0Ev
FNDA:1,_ZN37Launch_InertialInsertionVelocity_TestD0Ev
FNDA:1,_ZN40Launch_NonInertialInsertionVelocity_TestD0Ev
FNDA:1,_ZN37Launch_InertialDescendingAzimuth_TestD2Ev
FNDA:1,_ZN43Launch_GetSouthLaunchSiteLaunchWindows_TestC2Ev
FNDA:1,_ZN46Launch_RetrogradeInertialAscendingAzimuth_TestC2Ev
FNDA:1,_ZN47Launch_RetrogradeInertialInsertionVelocity_TestC2Ev
FNDA:1,_ZN39Launch_NonInertialAscendingAzimuth_TestC2Ev
FNDA:1,_ZN49Launch_RetrogradeNonInertialAscendingAzimuth_TestC2Ev
FNDA:1,_ZN43Launch_GetSouthLaunchSiteLaunchWindows_TestD2Ev
FNDA:1,_ZN37Launch_InertialInsertionVelocity_TestD2Ev
FNDA:1,_ZN40Launch_NonInertialDescendingAzimuth_TestC2Ev
FNDA:1,_ZN37Launch_InertialInsertionVelocity_TestC2Ev
FNDA:1,_ZN36Launch_InertialAscendingAzimuth_Test8TestBodyEv
FNDA:1,_ZN33Launch_GetLaunchWindowsByDay_Test8TestBodyEv
FNDA:1,_ZN39Launch_NonInertialAscendingAzimuth_TestD2Ev
FNDA:1,_ZN48Launch_GetSouthLaunchSiteLaunchWindowsByDay_TestD2Ev
FNDA:1,_ZN50Launch_RetrogradeNonInertialInsertionVelocity_TestD2Ev
FNDA:1,_ZN40Launch_NonInertialInsertionVelocity_TestC2Ev
FNDA:1,_ZN37Launch_InertialDescendingAzimuth_TestD0Ev
FNDA:1,_ZN40Launch_NonInertialDescendingAzimuth_TestD0Ev
FNDA:1,_ZN37Launch_InertialDescendingAzimuth_TestC2Ev
FNDA:1,_ZN50Launch_RetrogradeNonInertialInsertionVelocity_TestD0Ev
FNDA:1,_ZN39Launch_NonInertialAscendingAzimuth_Test8TestBodyEv
FNDA:1,_ZN28Launch_GetLaunchWindows_TestC2Ev
FNDA:1,_ZN48Launch_GetSouthLaunchSiteLaunchWindowsByDay_TestC2Ev
FNDA:1,_ZN43Launch_GetSouthLaunchSiteLaunchWindows_TestD0Ev
FNDA:1,_ZN47Launch_RetrogradeInertialInsertionVelocity_TestD0Ev
FNDA:1,_ZN50Launch_RetrogradeNonInertialInsertionVelocity_TestC2Ev
FNDA:1,_ZN47Launch_RetrogradeInertialInsertionVelocity_TestD2Ev
FNDA:1,_ZN33Launch_GetLaunchWindowsByDay_TestC2Ev
FNDA:1,_ZN46Launch_RetrogradeInertialAscendingAzimuth_Test8TestBodyEv
FNDA:1,_ZN48Launch_GetSouthLaunchSiteLaunchWindowsByDay_Test8TestBodyEv
FNDA:1,_ZN28Launch_GetLaunchWindows_TestD0Ev
FNDA:1,_ZN40Launch_NonInertialInsertionVelocity_Test8TestBodyEv
FNDA:1,_ZN40Launch_NonInertialInsertionVelocity_TestD2Ev
FNDA:1,_ZN43Launch_GetSouthLaunchSiteLaunchWindows_Test8TestBodyEv
FNDA:1,_ZN48Launch_GetSouthLaunchSiteLaunchWindowsByDay_TestD0Ev
FNDA:1,_ZN47Launch_RetrogradeInertialInsertionVelocity_Test8TestBodyEv
FNDA:1,_ZN40Launch_NonInertialDescendingAzimuth_TestD2Ev
FNDA:1,_ZN33Launch_GetLaunchWindowsByDay_TestD2Ev
FNDA:1,_ZN36Launch_InertialAscendingAzimuth_TestD2Ev
FNDA:1,_ZN46Launch_RetrogradeInertialAscendingAzimuth_TestD2Ev
FNDA:1,_ZN33Launch_GetLaunchWindowsByDay_TestD0Ev
FNDA:1,_ZN49Launch_RetrogradeNonInertialAscendingAzimuth_TestD2Ev
FNF:56
FNH:56
DA:15,4
DA:17,1
DA:18,1
DA:19,1
DA:20,2
DA:21,3
DA:22,1
DA:23,1
DA:25,1
DA:26,2
DA:27,1
DA:30,4
DA:32,1
DA:33,1
DA:34,1
DA:35,2
DA:36,3
DA:37,1
DA:38,1
DA:40,1
DA:41,2
DA:42,1
DA:45,4
DA:47,1
DA:48,1
DA:49,1
DA:50,2
DA:51,3
DA:52,1
DA:53,1
DA:55,1
DA:56,2
DA:57,1
DA:60,4
DA:62,1
DA:63,1
DA:64,1
DA:65,2
DA:66,3
DA:67,1
DA:68,1
DA:70,1
DA:71,2
DA:72,1
DA:75,4
DA:77,1
DA:78,1
DA:79,1
DA:80,2
DA:81,3
DA:82,1
DA:83,1
DA:85,1
DA:86,2
DA:87,1
DA:90,4
DA:92,1
DA:93,1
DA:94,1
DA:95,2
DA:96,3
DA:97,1
DA:98,1
DA:100,1
DA:101,2
DA:102,1
DA:105,4
DA:107,1
DA:108,1
DA:109,1
DA:110,2
DA:111,3
DA:112,1
DA:113,1
DA:115,1
DA:116,2
DA:117,1
DA:120,4
DA:122,1
DA:123,1
DA:124,1
DA:125,2
DA:126,3
DA:127,1
DA:128,1
DA:130,1
DA:131,2
DA:132,1
DA:135,4
DA:137,1
DA:138,1
DA:139,1
DA:140,2
DA:141,3
DA:142,1
DA:143,1
DA:145,1
DA:146,2
DA:147,1
DA:150,4
DA:152,1
DA:153,1
DA:154,1
DA:155,2
DA:156,3
DA:157,1
DA:158,1
DA:160,1
DA:161,2
DA:162,1
DA:165,4
DA:167,1
DA:168,1
DA:169,1
DA:170,2
DA:171,3
DA:172,1
DA:173,1
DA:175,7
DA:177,1
DA:178,2
DA:179,3
DA:182,1
DA:185,2
DA:186,1
DA:187,1
DA:188,1
DA:189,1
DA:190,1
DA:193,2
DA:194,1
DA:195,1
DA:196,1
DA:197,1
DA:198,1
DA:201,4
DA:203,1
DA:204,1
DA:205,1
DA:206,2
DA:207,3
DA:208,1
DA:209,1
DA:211,7
DA:213,1
DA:214,2
DA:215,3
DA:218,1
DA:221,2
DA:222,1
DA:223,1
DA:224,1
DA:225,1
DA:226,1
DA:229,4
DA:231,1
DA:232,1
DA:233,1
DA:234,2
DA:235,3
DA:236,1
DA:237,1
DA:239,7
DA:241,1
DA:242,2
DA:243,3
DA:246,1
DA:249,2
DA:250,1
DA:251,1
DA:252,1
DA:253,1
DA:254,1
DA:257,4
DA:259,1
DA:260,1
DA:261,1
DA:262,2
DA:263,3
DA:264,1
DA:265,1
DA:267,7
DA:269,1
DA:270,2
DA:271,3
DA:274,1
DA:277,2
DA:278,1
DA:279,1
DA:280,1
DA:281,1
DA:282,1
DA:285,2
DA:286,1
DA:287,1
DA:288,1
DA:289,1
DA:290,1
LF:198
LH:198
end_of_record
TN:
SF:/home/usr/Sources/SDK/IO.SDK.Tests/LaunchWindowTests.cpp
FN:16,_ZN28LaunchWindow_Initialize_Test8TestBodyEv
FN:16,_ZN28LaunchWindow_Initialize_TestD2Ev
FN:16,_ZN28LaunchWindow_Initialize_TestC2Ev
FN:16,_ZN28LaunchWindow_Initialize_TestD0Ev
FN:30,_ZN29LaunchWindow_Assignement_TestD2Ev
FN:30,_ZN29LaunchWindow_Assignement_Test8TestBodyEv
FN:30,_ZN29LaunchWindow_Assignement_TestD0Ev
FN:30,_ZN29LaunchWindow_Assignement_TestC2Ev
FNDA:1,_ZN29LaunchWindow_Assignement_TestD2Ev
FNDA:1,_ZN28LaunchWindow_Initialize_Test8TestBodyEv
FNDA:1,_ZN29LaunchWindow_Assignement_TestC2Ev
FNDA:1,_ZN29LaunchWindow_Assignement_TestD0Ev
FNDA:1,_ZN28LaunchWindow_Initialize_TestD0Ev
FNDA:1,_ZN28LaunchWindow_Initialize_TestC2Ev
FNDA:1,_ZN28LaunchWindow_Initialize_TestD2Ev
FNDA:1,_ZN29LaunchWindow_Assignement_Test8TestBodyEv
FNF:8
FNH:8
DA:16,4
DA:18,1
DA:19,1
DA:20,1
DA:21,2
DA:22,1
DA:23,2
DA:24,1
DA:25,1
DA:26,1
DA:27,1
DA:30,4
DA:32,1
DA:33,1
DA:34,1
DA:35,2
DA:36,2
DA:37,1
DA:38,1
DA:39,1
DA:40,1
DA:41,1
DA:42,1
LF:23
LH:23
end_of_record
TN:
SF:/home/usr/Sources/SDK/IO.SDK.Tests/Main.cpp
FN:4,main
FNDA:5,main
FNF:1
FNH:1
DA:4,5
DA:6,5
DA:10,5
LF:3
LH:3
end_of_record
TN:
SF:/home/usr/Sources/SDK/IO.SDK.Tests/ManeuverTests.cpp
FN:15,_ZN29Maneuvers_Initialization_TestD0Ev
FN:15,_ZN29Maneuvers_Initialization_TestC2Ev
FN:15,_ZN29Maneuvers_Initialization_TestD2Ev
FN:15,_ZN29Maneuvers_Initialization_Test8TestBodyEv
FN:39,_ZN22Maneuvers_Execute_TestD0Ev
FN:39,_ZN22Maneuvers_Execute_Test8TestBodyEv
FN:39,_ZN22Maneuvers_Execute_TestD2Ev
FN:39,_ZN22Maneuvers_Execute_TestC2Ev
FNDA:1,_ZN22Maneuvers_Execute_TestD2Ev
FNDA:1,_ZN29Maneuvers_Initialization_TestC2Ev
FNDA:1,_ZN29Maneuvers_Initialization_Test8TestBodyEv
FNDA:1,_ZN22Maneuvers_Execute_TestC2Ev
FNDA:1,_ZN29Maneuvers_Initialization_TestD2Ev
FNDA:1,_ZN22Maneuvers_Execute_TestD0Ev
FNDA:1,_ZN29Maneuvers_Initialization_TestD0Ev
FNDA:1,_ZN22Maneuvers_Execute_Test8TestBodyEv
FNF:8
FNH:8
DA:15,4
DA:18,2
DA:19,3
DA:20,2
DA:21,4
DA:23,2
DA:24,3
DA:26,1
DA:27,1
DA:29,1
DA:31,2
DA:32,1
DA:34,2
DA:36,1
DA:37,1
DA:39,4
DA:41,1
DA:42,2
DA:43,3
DA:45,1
DA:46,2
DA:49,1
DA:50,1
DA:51,1
DA:52,1
DA:53,1
DA:54,1
DA:56,1
DA:57,1
DA:58,1
DA:60,1
DA:61,1
DA:62,1
DA:64,1
DA:65,1
DA:66,1
DA:68,1
DA:69,1
DA:70,1
DA:71,1
DA:73,1
DA:75,1
DA:77,1
DA:80,1
DA:81,1
DA:82,1
DA:85,1
DA:86,1
DA:87,1
DA:88,2
DA:91,1
DA:92,2
DA:93,2
DA:94,2
DA:95,2
DA:96,2
DA:99,1
DA:100,1
LF:58
LH:58
end_of_record
TN:
SF:/home/usr/Sources/SDK/IO.SDK.Tests/MatrixTests.cpp
FN:5,_ZN26Matrix_Initialization_TestC2Ev
FN:5,_ZN26Matrix_Initialization_TestD2Ev
FN:5,_ZN26Matrix_Initialization_Test8TestBodyEv
FN:5,_ZN26Matrix_Initialization_TestD0Ev
FN:40,_ZN20Matrix_SetValue_TestD2Ev
FN:40,_ZN20Matrix_SetValue_TestD0Ev
FN:40,_ZN20Matrix_SetValue_TestC2Ev
FN:40,_ZN20Matrix_SetValue_Test8TestBodyEv
FN:48,_ZN22Matrix_OutOfrange_TestD2Ev
FN:48,_ZN22Matrix_OutOfrange_Test8TestBodyEv
FN:48,_ZN22Matrix_OutOfrange_TestC2Ev
FN:48,_ZN22Matrix_OutOfrange_TestD0Ev
FN:57,_ZN20Matrix_Multiply_TestD2Ev
FN:57,_ZN20Matrix_Multiply_TestC2Ev
FN:57,_ZN20Matrix_Multiply_TestD0Ev
FN:57,_ZN20Matrix_Multiply_Test8TestBodyEv
FN:80,_ZN21Matrix_Transpose_TestD2Ev
FN:80,_ZN21Matrix_Transpose_TestD0Ev
FN:80,_ZN21Matrix_Transpose_Test8TestBodyEv
FN:80,_ZN21Matrix_Transpose_TestC2Ev
FN:97,_ZN16Matrix_Copy_Test8TestBodyEv
FN:97,_ZN16Matrix_Copy_TestD2Ev
FN:97,_ZN16Matrix_Copy_TestD0Ev
FN:97,_ZN16Matrix_Copy_TestC2Ev
FNDA:1,_ZN21Matrix_Transpose_TestD0Ev
FNDA:1,_ZN16Matrix_Copy_Test8TestBodyEv
FNDA:1,_ZN26Matrix_Initialization_Test8TestBodyEv
FNDA:1,_ZN22Matrix_OutOfrange_TestD2Ev
FNDA:1,_ZN26Matrix_Initialization_TestC2Ev
FNDA:1,_ZN26Matrix_Initialization_TestD2Ev
FNDA:1,_ZN21Matrix_Transpose_TestD2Ev
FNDA:1,_ZN16Matrix_Copy_TestD2Ev
FNDA:1,_ZN26Matrix_Initialization_TestD0Ev
FNDA:1,_ZN22Matrix_OutOfrange_Test8TestBodyEv
FNDA:1,_ZN20Matrix_SetValue_TestD2Ev
FNDA:1,_ZN20Matrix_Multiply_TestD2Ev
FNDA:1,_ZN21Matrix_Transpose_TestC2Ev
FNDA:1,_ZN21Matrix_Transpose_Test8TestBodyEv
FNDA:1,_ZN22Matrix_OutOfrange_TestD0Ev
FNDA:1,_ZN20Matrix_Multiply_Test8TestBodyEv
FNDA:1,_ZN20Matrix_SetValue_Test8TestBodyEv
FNDA:1,_ZN20Matrix_SetValue_TestC2Ev
FNDA:1,_ZN20Matrix_Multiply_TestC2Ev
FNDA:1,_ZN20Matrix_Multiply_TestD0Ev
FNDA:1,_ZN22Matrix_OutOfrange_TestC2Ev
FNDA:1,_ZN20Matrix_SetValue_TestD0Ev
FNDA:1,_ZN16Matrix_Copy_TestD0Ev
FNDA:1,_ZN16Matrix_Copy_TestC2Ev
FNF:24
FNH:24
DA:5,4
DA:7,1
DA:8,1
DA:9,1
DA:10,1
DA:11,1
DA:14,1
DA:17,1
DA:18,4
DA:19,12
DA:21,4
DA:23,12
DA:25,9
DA:29,1
DA:31,4
DA:33,12
DA:35,9
DA:40,4
DA:42,1
DA:43,1
DA:44,1
DA:48,4
DA:50,1
DA:51,1
DA:52,1
DA:53,1
DA:54,1
DA:57,4
DA:59,1
DA:60,1
DA:61,1
DA:62,1
DA:63,1
DA:64,1
DA:66,1
DA:67,1
DA:68,1
DA:69,1
DA:71,1
DA:73,1
DA:74,1
DA:75,1
DA:76,1
DA:80,4
DA:82,1
DA:83,1
DA:84,1
DA:85,1
DA:86,1
DA:88,1
DA:90,1
DA:91,1
DA:92,1
DA:93,1
DA:97,4
DA:99,1
DA:100,1
DA:101,1
DA:102,1
DA:103,1
DA:105,1
DA:107,1
DA:108,1
DA:110,3
DA:112,6
DA:114,4
LF:66
LH:66
end_of_record
TN:
SF:/home/usr/Sources/SDK/IO.SDK.Tests/NadirAttitudeTests.cpp
FN:18,_ZN33NadirAttitude_GetOrientation_Test8TestBodyEv
FN:18,_ZN33NadirAttitude_GetOrientation_TestD0Ev
FN:18,_ZN33NadirAttitude_GetOrientation_TestD2Ev
FN:18,_ZN33NadirAttitude_GetOrientation_TestC2Ev
FN:55,_ZN45NadirAttitude_GetOrientationMinimumEpoch_Test8TestBodyEv
FN:55,_ZN45NadirAttitude_GetOrientationMinimumEpoch_TestD0Ev
FN:55,_ZN45NadirAttitude_GetOrientationMinimumEpoch_TestC2Ev
FN:55,_ZN45NadirAttitude_GetOrientationMinimumEpoch_TestD2Ev
FNDA:1,_ZN45NadirAttitude_GetOrientationMinimumEpoch_TestD0Ev
FNDA:1,_ZN45NadirAttitude_GetOrientationMinimumEpoch_TestC2Ev
FNDA:1,_ZN33NadirAttitude_GetOrientation_TestC2Ev
FNDA:1,_ZN33NadirAttitude_GetOrientation_TestD2Ev
FNDA:1,_ZN45NadirAttitude_GetOrientationMinimumEpoch_TestD2Ev
FNDA:1,_ZN33NadirAttitude_GetOrientation_Test8TestBodyEv
FNDA:1,_ZN45NadirAttitude_GetOrientationMinimumEpoch_Test8TestBodyEv
FNDA:1,_ZN33NadirAttitude_GetOrientation_TestD0Ev
FNF:8
FNH:8
DA:18,4
DA:20,1
DA:22,2
DA:24,3
DA:26,1
DA:28,3
DA:30,1
DA:31,1
DA:33,1
DA:35,1
DA:36,1
DA:38,1
DA:39,1
DA:41,1
DA:43,2
DA:45,1
DA:46,2
DA:47,1
DA:48,1
DA:49,1
DA:50,3
DA:51,3
DA:55,4
DA:57,1
DA:59,2
DA:61,3
DA:63,1
DA:65,3
DA:67,1
DA:68,1
DA:70,1
DA:72,1
DA:73,1
DA:75,2
DA:76,1
DA:78,1
DA:80,2
DA:82,1
DA:83,2
DA:84,1
DA:85,1
DA:86,3
DA:87,3
DA:88,1
LF:44
LH:44
end_of_record
TN:
SF:/home/usr/Sources/SDK/IO.SDK.Tests/OccultationTypesTests.cpp
FN:4,_ZN28OccultationTypes_Values_TestD0Ev
FN:4,_ZN28OccultationTypes_Values_TestD2Ev
FN:4,_ZN28OccultationTypes_Values_TestC2Ev
FN:4,_ZN28OccultationTypes_Values_Test8TestBodyEv
FNDA:1,_ZN28OccultationTypes_Values_TestD0Ev
FNDA:1,_ZN28OccultationTypes_Values_Test8TestBodyEv
FNDA:1,_ZN28OccultationTypes_Values_TestD2Ev
FNDA:1,_ZN28OccultationTypes_Values_TestC2Ev
FNF:4
FNH:4
DA:4,4
DA:7,1
DA:8,1
DA:9,1
DA:10,1
LF:5
LH:5
end_of_record
TN:
SF:/home/usr/Sources/SDK/IO.SDK.Tests/OrientationKernelTests.cpp
FN:16,_ZN32OrientationKernel_WriteData_TestD0Ev
FN:16,_ZN32OrientationKernel_WriteData_TestC2Ev
FN:16,_ZN32OrientationKernel_WriteData_TestD2Ev
FN:16,_ZN32OrientationKernel_WriteData_Test8TestBodyEv
FN:104,_ZN34OrientationKernel_GetCoverage_Test8TestBodyEv
FN:104,_ZN34OrientationKernel_GetCoverage_TestD0Ev
FN:104,_ZN34OrientationKernel_GetCoverage_TestC2Ev
FN:104,_ZN34OrientationKernel_GetCoverage_TestD2Ev
FN:137,_ZN35OrientationKernel_WriteComment_TestD2Ev
FN:137,_ZN35OrientationKernel_WriteComment_TestC2Ev
FN:137,_ZN35OrientationKernel_WriteComment_Test8TestBodyEv
FN:137,_ZN35OrientationKernel_WriteComment_TestD0Ev
FNDA:1,_ZN35OrientationKernel_WriteComment_TestD2Ev
FNDA:1,_ZN32OrientationKernel_WriteData_TestD0Ev
FNDA:1,_ZN34OrientationKernel_GetCoverage_Test8TestBodyEv
FNDA:1,_ZN32OrientationKernel_WriteData_TestC2Ev
FNDA:1,_ZN35OrientationKernel_WriteComment_TestC2Ev
FNDA:1,_ZN34OrientationKernel_GetCoverage_TestD0Ev
FNDA:1,_ZN35OrientationKernel_WriteComment_Test8TestBodyEv
FNDA:1,_ZN34OrientationKernel_GetCoverage_TestC2Ev
FNDA:1,_ZN32OrientationKernel_WriteData_TestD2Ev
FNDA:1,_ZN34OrientationKernel_GetCoverage_TestD2Ev
FNDA:1,_ZN35OrientationKernel_WriteComment_TestD0Ev
FNDA:1,_ZN32OrientationKernel_WriteData_Test8TestBodyEv
FNF:12
FNH:12
DA:16,4
DA:18,1
DA:19,2
DA:20,1
DA:21,3
DA:23,1
DA:24,1
DA:25,2
DA:26,1
DA:27,1
DA:28,1
DA:30,21
DA:32,20
DA:33,20
DA:34,40
DA:35,20
DA:38,1
DA:40,1
DA:43,2
DA:45,1
DA:46,1
DA:47,1
DA:48,1
DA:49,1
DA:51,1
DA:52,1
DA:53,1
DA:55,2
DA:58,2
DA:60,1
DA:61,1
DA:62,1
DA:63,1
DA:64,1
DA:66,1
DA:67,1
DA:68,1
DA:70,2
DA:73,2
DA:75,1
DA:76,1
DA:77,1
DA:78,1
DA:79,1
DA:81,1
DA:82,1
DA:83,1
DA:85,2
DA:88,2
DA:90,1
DA:91,1
DA:92,1
DA:93,1
DA:94,1
DA:96,1
DA:97,1
DA:98,1
DA:100,2
DA:104,4
DA:106,1
DA:107,2
DA:108,1
DA:109,3
DA:111,1
DA:112,1
DA:113,2
DA:114,1
DA:115,1
DA:117,21
DA:119,20
DA:120,20
DA:121,40
DA:122,20
DA:125,1
DA:127,1
DA:129,1
DA:130,1
DA:132,1
DA:134,1
DA:137,4
DA:139,1
DA:140,2
DA:141,1
DA:142,3
DA:144,1
DA:145,1
DA:146,2
DA:147,1
DA:148,1
DA:150,21
DA:152,20
DA:153,20
DA:154,40
DA:155,20
DA:158,1
DA:160,1
DA:162,1
DA:163,1
DA:164,1
LF:99
LH:99
end_of_record
TN:
SF:/home/usr/Sources/SDK/IO.SDK.Tests/PayloadTests.cpp
FN:5,_ZN27Payload_Initialization_TestC2Ev
FN:5,_ZN27Payload_Initialization_TestD0Ev
FN:5,_ZN27Payload_Initialization_Test8TestBodyEv
FN:5,_ZN27Payload_Initialization_TestD2Ev
FN:13,_ZN24Payload_InvalidName_TestD2Ev
FN:13,_ZN24Payload_InvalidName_TestC2Ev
FN:13,_ZN24Payload_InvalidName_Test8TestBodyEv
FN:13,_ZN24Payload_InvalidName_TestD0Ev
FN:18,_ZN32Payload_InvalidSerialNumber_TestD0Ev
FN:18,_ZN32Payload_InvalidSerialNumber_TestC2Ev
FN:18,_ZN32Payload_InvalidSerialNumber_TestD2Ev
FN:18,_ZN32Payload_InvalidSerialNumber_Test8TestBodyEv
FN:23,_ZN24Payload_InvalidMass_TestD2Ev
FN:23,_ZN24Payload_InvalidMass_Test8TestBodyEv
FN:23,_ZN24Payload_InvalidMass_TestC2Ev
FN:23,_ZN24Payload_InvalidMass_TestD0Ev
FNDA:1,_ZN24Payload_InvalidMass_TestC2Ev
FNDA:1,_ZN27Payload_Initialization_TestD2Ev
FNDA:1,_ZN24Payload_InvalidMass_TestD0Ev
FNDA:1,_ZN32Payload_InvalidSerialNumber_Test8TestBodyEv
FNDA:1,_ZN24Payload_InvalidName_TestD0Ev
FNDA:1,_ZN32Payload_InvalidSerialNumber_TestC2Ev
FNDA:1,_ZN32Payload_InvalidSerialNumber_TestD2Ev
FNDA:1,_ZN24Payload_InvalidMass_Test8TestBodyEv
FNDA:1,_ZN27Payload_Initialization_Test8TestBodyEv
FNDA:1,_ZN24Payload_InvalidName_Test8TestBodyEv
FNDA:1,_ZN24Payload_InvalidName_TestD2Ev
FNDA:1,_ZN24Payload_InvalidName_TestC2Ev
FNDA:1,_ZN27Payload_Initialization_TestD0Ev
FNDA:1,_ZN24Payload_InvalidMass_TestD2Ev
FNDA:1,_ZN27Payload_Initialization_TestC2Ev
FNDA:1,_ZN32Payload_InvalidSerialNumber_TestD0Ev
FNF:16
FNH:16
DA:5,4
DA:7,3
DA:8,2
DA:9,2
DA:10,1
DA:13,4
DA:15,4
DA:18,4
DA:20,4
DA:23,4
DA:25,4
LF:11
LH:11
end_of_record
TN:
SF:/home/usr/Sources/SDK/IO.SDK.Tests/PerigeeHeightChangingManeuverTests.cpp
FN:17,_ZN50PerigeeHeightChangingManeuverTests_CanExecute_TestD0Ev
FN:17,_ZN50PerigeeHeightChangingManeuverTests_CanExecute_Test8TestBodyEv
FN:17,_ZN50PerigeeHeightChangingManeuverTests_CanExecute_TestD2Ev
FN:17,_ZN50PerigeeHeightChangingManeuverTests_CanExecute_TestC2Ev
FN:50,_ZN61PerigeeHeightChangingManeuverTests_IncreasePerigeeHeight_TestD2Ev
FN:50,_ZN61PerigeeHeightChangingManeuverTests_IncreasePerigeeHeight_TestD0Ev
FN:50,_ZN61PerigeeHeightChangingManeuverTests_IncreasePerigeeHeight_Test8TestBodyEv
FN:50,_ZN61PerigeeHeightChangingManeuverTests_IncreasePerigeeHeight_TestC2Ev
FN:80,_ZN61PerigeeHeightChangingManeuverTests_DecreasePerigeeHeight_Test8TestBodyEv
FN:80,_ZN61PerigeeHeightChangingManeuverTests_DecreasePerigeeHeight_TestC2Ev
FN:80,_ZN61PerigeeHeightChangingManeuverTests_DecreasePerigeeHeight_TestD0Ev
FN:80,_ZN61PerigeeHeightChangingManeuverTests_DecreasePerigeeHeight_TestD2Ev
FNDA:1,_ZN61PerigeeHeightChangingManeuverTests_DecreasePerigeeHeight_Test8TestBodyEv
FNDA:1,_ZN61PerigeeHeightChangingManeuverTests_DecreasePerigeeHeight_TestC2Ev
FNDA:1,_ZN50PerigeeHeightChangingManeuverTests_CanExecute_TestD0Ev
FNDA:1,_ZN50PerigeeHeightChangingManeuverTests_CanExecute_Test8TestBodyEv
FNDA:1,_ZN61PerigeeHeightChangingManeuverTests_DecreasePerigeeHeight_TestD0Ev
FNDA:1,_ZN50PerigeeHeightChangingManeuverTests_CanExecute_TestC2Ev
FNDA:1,_ZN61PerigeeHeightChangingManeuverTests_IncreasePerigeeHeight_TestD2Ev
FNDA:1,_ZN50PerigeeHeightChangingManeuverTests_CanExecute_TestD2Ev
FNDA:1,_ZN61PerigeeHeightChangingManeuverTests_DecreasePerigeeHeight_TestD2Ev
FNDA:1,_ZN61PerigeeHeightChangingManeuverTests_IncreasePerigeeHeight_TestD0Ev
FNDA:1,_ZN61PerigeeHeightChangingManeuverTests_IncreasePerigeeHeight_Test8TestBodyEv
FNDA:1,_ZN61PerigeeHeightChangingManeuverTests_IncreasePerigeeHeight_TestC2Ev
FNF:12
FNH:12
DA:17,4
DA:19,1
DA:21,2
DA:22,3
DA:23,1
DA:24,2
DA:26,1
DA:27,1
DA:29,1
DA:31,1
DA:32,1
DA:33,1
DA:35,1
DA:38,1
DA:41,1
DA:44,1
DA:47,1
DA:50,4
DA:52,1
DA:54,2
DA:55,3
DA:56,1
DA:57,2
DA:59,1
DA:60,1
DA:62,1
DA:65,1
DA:66,1
DA:67,1
DA:68,1
DA:69,1
DA:71,2
DA:73,1
DA:74,1
DA:75,1
DA:76,1
DA:77,1
DA:80,4
DA:82,1
DA:84,2
DA:85,3
DA:86,1
DA:87,2
DA:89,1
DA:90,1
DA:92,1
DA:95,1
DA:96,1
DA:97,1
DA:98,1
DA:100,1
DA:102,2
DA:104,1
DA:105,1
DA:106,1
DA:107,1
DA:108,1
LF:57
LH:57
end_of_record
TN:
SF:/home/usr/Sources/SDK/IO.SDK.Tests/PhasingManeuverTests.cpp
FN:21,_ZN31PhasingManeuver_CanExecute_TestD0Ev
FN:21,_ZN31PhasingManeuver_CanExecute_Test8TestBodyEv
FN:21,_ZN31PhasingManeuver_CanExecute_TestC2Ev
FN:21,_ZN31PhasingManeuver_CanExecute_TestD2Ev
FN:59,_ZN46PhasingManeuver_TryExecuteOnGeostationary_TestD0Ev
FN:59,_ZN46PhasingManeuver_TryExecuteOnGeostationary_TestC2Ev
FN:59,_ZN46PhasingManeuver_TryExecuteOnGeostationary_Test8TestBodyEv
FN:59,_ZN46PhasingManeuver_TryExecuteOnGeostationary_TestD2Ev
FN:118,_ZN43PhasingManeuver_CheckOrbitalParameters_Test8TestBodyEv
FN:118,_ZN43PhasingManeuver_CheckOrbitalParameters_TestD2Ev
FN:118,_ZN43PhasingManeuver_CheckOrbitalParameters_TestD0Ev
FN:118,_ZN43PhasingManeuver_CheckOrbitalParameters_TestC2Ev
FNDA:1,_ZN43PhasingManeuver_CheckOrbitalParameters_Test8TestBodyEv
FNDA:1,_ZN46PhasingManeuver_TryExecuteOnGeostationary_Test8TestBodyEv
FNDA:1,_ZN31PhasingManeuver_CanExecute_TestC2Ev
FNDA:1,_ZN46PhasingManeuver_TryExecuteOnGeostationary_TestD2Ev
FNDA:1,_ZN43PhasingManeuver_CheckOrbitalParameters_TestC2Ev
FNDA:1,_ZN43PhasingManeuver_CheckOrbitalParameters_TestD0Ev
FNDA:1,_ZN31PhasingManeuver_CanExecute_TestD2Ev
FNDA:1,_ZN43PhasingManeuver_CheckOrbitalParameters_TestD2Ev
FNDA:1,_ZN31PhasingManeuver_CanExecute_TestD0Ev
FNDA:1,_ZN46PhasingManeuver_TryExecuteOnGeostationary_TestC2Ev
FNDA:1,_ZN46PhasingManeuver_TryExecuteOnGeostationary_TestD0Ev
FNDA:1,_ZN31PhasingManeuver_CanExecute_Test8TestBodyEv
FNF:12
FNH:12
DA:21,4
DA:23,1
DA:24,2
DA:25,2
DA:27,3
DA:29,1
DA:30,2
DA:32,1
DA:33,1
DA:35,1
DA:37,1
DA:38,1
DA:40,1
DA:43,1
DA:46,1
DA:49,1
DA:52,1
DA:55,1
DA:56,1
DA:59,4
DA:61,1
DA:62,2
DA:63,2
DA:65,3
DA:67,1
DA:68,2
DA:70,1
DA:71,1
DA:73,1
DA:75,1
DA:76,1
DA:78,1
DA:80,1
DA:82,1
DA:84,1
DA:96,1
DA:97,1
DA:98,1
DA:99,1
DA:100,1
DA:101,1
DA:102,2
DA:106,1
DA:109,1
DA:110,1
DA:111,1
DA:114,1
DA:115,1
DA:118,4
DA:120,1
DA:121,2
DA:122,2
DA:124,1
DA:125,1
DA:127,3
DA:130,1
DA:131,1
DA:132,1
DA:134,1
DA:135,2
DA:137,1
DA:138,1
DA:140,1
DA:142,1
DA:143,1
DA:145,1
DA:146,1
DA:147,1
DA:149,1
DA:150,1
DA:152,2
DA:153,2
DA:155,1
DA:156,1
DA:157,1
DA:158,1
DA:159,1
DA:160,2
DA:161,2
DA:163,2
DA:164,2
DA:166,1
DA:167,1
DA:169,1
DA:172,1
DA:173,1
DA:175,1
DA:179,1
DA:182,1
LF:89
LH:89
end_of_record
TN:
SF:/home/usr/Sources/SDK/IO.SDK.Tests/PlaneChangingManeuverTests.cpp
FN:21,_ZN37PlaneChangingManeuver_CanExecute_TestD0Ev
FN:21,_ZN37PlaneChangingManeuver_CanExecute_Test8TestBodyEv
FN:21,_ZN37PlaneChangingManeuver_CanExecute_TestD2Ev
FN:21,_ZN37PlaneChangingManeuver_CanExecute_TestC2Ev
FN:96,_ZN39PlaneChangingManeuver_IdentifyNode_TestD0Ev
FN:96,_ZN39PlaneChangingManeuver_IdentifyNode_TestC2Ev
FN:96,_ZN39PlaneChangingManeuver_IdentifyNode_Test8TestBodyEv
FN:96,_ZN39PlaneChangingManeuver_IdentifyNode_TestD2Ev
FN:125,_ZN40PlaneChangingManeuver_IdentifyNode2_TestD0Ev
FN:125,_ZN40PlaneChangingManeuver_IdentifyNode2_TestD2Ev
FN:125,_ZN40PlaneChangingManeuver_IdentifyNode2_Test8TestBodyEv
FN:125,_ZN40PlaneChangingManeuver_IdentifyNode2_TestC2Ev
FN:154,_ZN40PlaneChangingManeuver_IdentifyNode3_TestD2Ev
FN:154,_ZN40PlaneChangingManeuver_IdentifyNode3_Test8TestBodyEv
FN:154,_ZN40PlaneChangingManeuver_IdentifyNode3_TestD0Ev
FN:154,_ZN40PlaneChangingManeuver_IdentifyNode3_TestC2Ev
FN:183,_ZN51PlaneChangingManeuver_ExecuteInsuffisantDeltaV_TestD0Ev
FN:183,_ZN51PlaneChangingManeuver_ExecuteInsuffisantDeltaV_TestC2Ev
FN:183,_ZN51PlaneChangingManeuver_ExecuteInsuffisantDeltaV_Test8TestBodyEv
FN:183,_ZN51PlaneChangingManeuver_ExecuteInsuffisantDeltaV_TestD2Ev
FN:219,_ZN36PlaneChangingManeuver_ExecuteDN_TestD2Ev
FN:219,_ZN36PlaneChangingManeuver_ExecuteDN_Test8TestBodyEv
FN:219,_ZN36PlaneChangingManeuver_ExecuteDN_TestD0Ev
FN:219,_ZN36PlaneChangingManeuver_ExecuteDN_TestC2Ev
FN:281,_ZN36PlaneChangingManeuver_ExecuteAN_TestC2Ev
FN:281,_ZN36PlaneChangingManeuver_ExecuteAN_TestD2Ev
FN:281,_ZN36PlaneChangingManeuver_ExecuteAN_TestD0Ev
FN:281,_ZN36PlaneChangingManeuver_ExecuteAN_Test8TestBodyEv
FN:340,_ZN68PlaneChangingManeuver_CheckOrbitalParametersToHigherInclination_TestD2Ev
FN:340,_ZN68PlaneChangingManeuver_CheckOrbitalParametersToHigherInclination_TestC2Ev
FN:340,_ZN68PlaneChangingManeuver_CheckOrbitalParametersToHigherInclination_TestD0Ev
FN:340,_ZN68PlaneChangingManeuver_CheckOrbitalParametersToHigherInclination_Test8TestBodyEv
FN:433,_ZN67PlaneChangingManeuver_CheckOrbitalParametersToLowerInclination_TestD0Ev
FN:433,_ZN67PlaneChangingManeuver_CheckOrbitalParametersToLowerInclination_Test8TestBodyEv
FN:433,_ZN67PlaneChangingManeuver_CheckOrbitalParametersToLowerInclination_TestC2Ev
FN:433,_ZN67PlaneChangingManeuver_CheckOrbitalParametersToLowerInclination_TestD2Ev
FNDA:1,_ZN68PlaneChangingManeuver_CheckOrbitalParametersToHigherInclination_Test8TestBodyEv
FNDA:1,_ZN51PlaneChangingManeuver_ExecuteInsuffisantDeltaV_TestD2Ev
FNDA:1,_ZN67PlaneChangingManeuver_CheckOrbitalParametersToLowerInclination_TestD2Ev
FNDA:1,_ZN37PlaneChangingManeuver_CanExecute_TestC2Ev
FNDA:1,_ZN40PlaneChangingManeuver_IdentifyNode3_TestD0Ev
FNDA:1,_ZN36PlaneChangingManeuver_ExecuteAN_Test8TestBodyEv
FNDA:1,_ZN40PlaneChangingManeuver_IdentifyNode3_TestC2Ev
FNDA:1,_ZN36PlaneChangingManeuver_ExecuteAN_TestD0Ev
FNDA:1,_ZN40PlaneChangingManeuver_IdentifyNode2_TestC2Ev
FNDA:1,_ZN68PlaneChangingManeuver_CheckOrbitalParametersToHigherInclination_TestD0Ev
FNDA:1,_ZN40PlaneChangingManeuver_IdentifyNode2_Test8TestBodyEv
FNDA:1,_ZN36PlaneChangingManeuver_ExecuteAN_TestD2Ev
FNDA:1,_ZN68PlaneChangingManeuver_CheckOrbitalParametersToHigherInclination_TestC2Ev
FNDA:1,_ZN40PlaneChangingManeuver_IdentifyNode3_Test8TestBodyEv
FNDA:1,_ZN36PlaneChangingManeuver_ExecuteDN_TestC2Ev
FNDA:1,_ZN51PlaneChangingManeuver_ExecuteInsuffisantDeltaV_Test8TestBodyEv
FNDA:1,_ZN39PlaneChangingManeuver_IdentifyNode_TestD2Ev
FNDA:1,_ZN40PlaneChangingManeuver_IdentifyNode3_TestD2Ev
FNDA:1,_ZN68PlaneChangingManeuver_CheckOrbitalParametersToHigherInclination_TestD2Ev
FNDA:1,_ZN67PlaneChangingManeuver_CheckOrbitalParametersToLowerInclination_TestC2Ev
FNDA:1,_ZN36PlaneChangingManeuver_ExecuteAN_TestC2Ev
FNDA:1,_ZN36PlaneChangingManeuver_ExecuteDN_TestD0Ev
FNDA:1,_ZN39PlaneChangingManeuver_IdentifyNode_Test8TestBodyEv
FNDA:1,_ZN51PlaneChangingManeuver_ExecuteInsuffisantDeltaV_TestC2Ev
FNDA:1,_ZN40PlaneChangingManeuver_IdentifyNode2_TestD2Ev
FNDA:1,_ZN36PlaneChangingManeuver_ExecuteDN_Test8TestBodyEv
FNDA:1,_ZN37PlaneChangingManeuver_CanExecute_TestD2Ev
FNDA:1,_ZN51PlaneChangingManeuver_ExecuteInsuffisantDeltaV_TestD0Ev
FNDA:1,_ZN36PlaneChangingManeuver_ExecuteDN_TestD2Ev
FNDA:1,_ZN40PlaneChangingManeuver_IdentifyNode2_TestD0Ev
FNDA:1,_ZN37PlaneChangingManeuver_CanExecute_Test8TestBodyEv
FNDA:1,_ZN39PlaneChangingManeuver_IdentifyNode_TestC2Ev
FNDA:1,_ZN39PlaneChangingManeuver_IdentifyNode_TestD0Ev
FNDA:1,_ZN67PlaneChangingManeuver_CheckOrbitalParametersToLowerInclination_Test8TestBodyEv
FNDA:1,_ZN37PlaneChangingManeuver_CanExecute_TestD0Ev
FNDA:1,_ZN67PlaneChangingManeuver_CheckOrbitalParametersToLowerInclination_TestD0Ev
FNF:36
FNH:36
DA:21,4
DA:23,1
DA:24,2
DA:25,2
DA:26,1
DA:27,3
DA:29,1
DA:30,2
DA:32,1
DA:33,1
DA:35,1
DA:37,1
DA:38,1
DA:40,1
DA:42,1
DA:43,1
DA:45,1
DA:48,1
DA:51,1
DA:54,1
DA:61,1
DA:64,1
DA:67,1
DA:74,1
DA:77,1
DA:80,1
DA:87,1
DA:90,1
DA:93,1
DA:96,4
DA:98,1
DA:99,2
DA:100,2
DA:101,1
DA:102,3
DA:104,1
DA:105,2
DA:107,1
DA:108,1
DA:110,1
DA:112,1
DA:113,1
DA:115,1
DA:117,1
DA:118,1
DA:121,1
DA:122,1
DA:125,4
DA:127,1
DA:128,2
DA:129,2
DA:130,1
DA:131,3
DA:133,1
DA:134,2
DA:136,1
DA:137,1
DA:139,1
DA:141,1
DA:142,1
DA:144,1
DA:146,1
DA:147,1
DA:150,1
DA:151,1
DA:154,4
DA:156,1
DA:157,2
DA:158,2
DA:159,1
DA:160,3
DA:162,1
DA:163,2
DA:165,1
DA:166,1
DA:168,1
DA:170,1
DA:171,1
DA:173,1
DA:175,1
DA:176,1
DA:179,1
DA:180,1
DA:183,4
DA:186,1
DA:187,2
DA:188,2
DA:189,1
DA:190,3
DA:192,1
DA:193,2
DA:195,1
DA:196,1
DA:198,1
DA:200,1
DA:201,1
DA:203,1
DA:205,1
DA:206,1
DA:210,1
DA:213,1
DA:215,1
DA:216,1
DA:219,4
DA:222,1
DA:223,2
DA:224,2
DA:225,1
DA:226,3
DA:228,1
DA:229,2
DA:231,1
DA:233,1
DA:234,1
DA:236,1
DA:238,1
DA:239,1
DA:241,1
DA:243,1
DA:244,1
DA:248,1
DA:251,1
DA:253,1
DA:256,1
DA:259,1
DA:260,1
DA:261,1
DA:262,1
DA:265,1
DA:268,1
DA:269,1
DA:270,1
DA:271,1
DA:277,2
DA:281,4
DA:284,1
DA:285,2
DA:286,2
DA:287,1
DA:288,3
DA:290,1
DA:291,2
DA:293,1
DA:295,1
DA:296,1
DA:298,1
DA:300,1
DA:301,1
DA:303,1
DA:305,1
DA:306,1
DA:310,1
DA:313,1
DA:315,1
DA:318,1
DA:321,1
DA:322,1
DA:323,1
DA:324,1
DA:327,1
DA:333,1
DA:337,2
DA:340,4
DA:344,1
DA:349,0
DA:350,0
DA:351,0
DA:352,0
DA:353,0
DA:354,1
DA:355,2
DA:356,2
DA:359,0
DA:360,0
DA:361,0
DA:362,0
DA:363,0
DA:364,1
DA:365,2
DA:366,2
DA:371,3
DA:372,1
DA:373,1
DA:376,1
DA:379,1
DA:380,1
DA:381,1
DA:384,1
DA:387,2
DA:388,2
DA:389,2
DA:394,1
DA:395,1
DA:396,1
DA:399,1
DA:402,1
DA:404,1
DA:406,1
DA:407,1
DA:409,1
DA:411,1
DA:412,1
DA:413,1
DA:414,1
DA:415,1
DA:417,1
DA:419,1
DA:421,1
DA:423,1
DA:429,1
DA:433,4
DA:437,1
DA:442,0
DA:443,0
DA:444,0
DA:445,0
DA:446,0
DA:447,1
DA:448,2
DA:449,2
DA:452,0
DA:453,0
DA:454,0
DA:455,0
DA:456,0
DA:457,1
DA:458,2
DA:459,2
DA:464,3
DA:465,1
DA:466,1
DA:469,1
DA:472,1
DA:473,1
DA:474,1
DA:477,1
DA:480,2
DA:481,2
DA:482,2
DA:487,1
DA:488,1
DA:489,1
DA:492,1
DA:495,1
DA:497,1
DA:499,1
DA:500,1
DA:502,1
DA:504,1
DA:505,1
DA:506,1
DA:507,1
DA:508,1
DA:510,1
DA:512,1
DA:514,1
DA:516,1
DA:518,1
LF:258
LH:238
end_of_record
TN:
SF:/home/usr/Sources/SDK/IO.SDK.Tests/PlanetographicTests.cpp
FN:4,_ZN34Planetographic_Initialization_TestC2Ev
FN:4,_ZN34Planetographic_Initialization_TestD0Ev
FN:4,_ZN34Planetographic_Initialization_Test8TestBodyEv
FN:4,_ZN34Planetographic_Initialization_TestD2Ev
FNDA:1,_ZN34Planetographic_Initialization_TestC2Ev
FNDA:1,_ZN34Planetographic_Initialization_TestD0Ev
FNDA:1,_ZN34Planetographic_Initialization_Test8TestBodyEv
FNDA:1,_ZN34Planetographic_Initialization_TestD2Ev
FNF:4
FNH:4
DA:4,4
DA:6,1
DA:8,1
DA:9,1
DA:10,1
LF:5
LH:5
end_of_record
TN:
SF:/home/usr/Sources/SDK/IO.SDK.Tests/ProgradeAttitudeTests.cpp
FN:18,_ZN36ProgradeAttitude_GetOrientation_TestC2Ev
FN:18,_ZN36ProgradeAttitude_GetOrientation_Test8TestBodyEv
FN:18,_ZN36ProgradeAttitude_GetOrientation_TestD2Ev
FN:18,_ZN36ProgradeAttitude_GetOrientation_TestD0Ev
FN:52,_ZN48ProgradeAttitude_GetOrientationMinimumEpoch_Test8TestBodyEv
FN:52,_ZN48ProgradeAttitude_GetOrientationMinimumEpoch_TestD2Ev
FN:52,_ZN48ProgradeAttitude_GetOrientationMinimumEpoch_TestC2Ev
FN:52,_ZN48ProgradeAttitude_GetOrientationMinimumEpoch_TestD0Ev
FNDA:1,_ZN36ProgradeAttitude_GetOrientation_TestD0Ev
FNDA:1,_ZN48ProgradeAttitude_GetOrientationMinimumEpoch_TestD0Ev
FNDA:1,_ZN36ProgradeAttitude_GetOrientation_TestD2Ev
FNDA:1,_ZN48ProgradeAttitude_GetOrientationMinimumEpoch_Test8TestBodyEv
FNDA:1,_ZN36ProgradeAttitude_GetOrientation_TestC2Ev
FNDA:1,_ZN36ProgradeAttitude_GetOrientation_Test8TestBodyEv
FNDA:1,_ZN48ProgradeAttitude_GetOrientationMinimumEpoch_TestC2Ev
FNDA:1,_ZN48ProgradeAttitude_GetOrientationMinimumEpoch_TestD2Ev
FNF:8
FNH:8
DA:18,4
DA:20,1
DA:22,2
DA:24,3
DA:26,1
DA:28,3
DA:30,1
DA:31,1
DA:33,1
DA:35,1
DA:36,1
DA:38,1
DA:39,1
DA:41,1
DA:44,2
DA:46,1
DA:47,2
DA:48,1
DA:49,1
DA:52,4
DA:54,1
DA:56,2
DA:58,3
DA:60,1
DA:62,3
DA:64,1
DA:65,1
DA:67,1
DA:69,1
DA:70,1
DA:72,2
DA:73,1
DA:75,1
DA:77,2
DA:79,1
DA:80,2
DA:81,1
DA:82,1
DA:83,3
DA:84,3
DA:85,1
LF:41
LH:41
end_of_record
TN:
SF:/home/usr/Sources/SDK/IO.SDK.Tests/PropagatorTests.cpp
FN:17,_ZN30Propagator_Initialization_TestD2Ev
FN:17,_ZN30Propagator_Initialization_TestD0Ev
FN:17,_ZN30Propagator_Initialization_TestC2Ev
FN:17,_ZN30Propagator_Initialization_Test8TestBodyEv
FN:27,_ZN37Propagator_FindNearestLowerValue_Test8TestBodyEv
FN:27,_ZN37Propagator_FindNearestLowerValue_TestC2Ev
FN:27,_ZN37Propagator_FindNearestLowerValue_TestD0Ev
FN:27,_ZN37Propagator_FindNearestLowerValue_TestD2Ev
FN:59,_ZN30Propagator_EraseDataRange_Test8TestBodyEv
FN:59,_ZN30Propagator_EraseDataRange_TestD2Ev
FN:59,_ZN30Propagator_EraseDataRange_TestC2Ev
FN:59,_ZN30Propagator_EraseDataRange_TestD0Ev
FN:91,_ZN37Propagator_PropagateVVIntegrator_Test8TestBodyEv
FN:91,_ZN37Propagator_PropagateVVIntegrator_TestD2Ev
FN:91,_ZN37Propagator_PropagateVVIntegrator_TestC2Ev
FN:91,_ZN37Propagator_PropagateVVIntegrator_TestD0Ev
FN:155,_ZN34Propagator_PropagatorVsKepler_TestD0Ev
FN:155,_ZN34Propagator_PropagatorVsKepler_Test8TestBodyEv
FN:155,_ZN34Propagator_PropagatorVsKepler_TestC2Ev
FN:155,_ZN34Propagator_PropagatorVsKepler_TestD2Ev
FN:245,_ZN35Propagator_PropagatorVsKepler2_TestD0Ev
FN:245,_ZN35Propagator_PropagatorVsKepler2_TestC2Ev
FN:245,_ZN35Propagator_PropagatorVsKepler2_TestD2Ev
FN:245,_ZN35Propagator_PropagatorVsKepler2_Test8TestBodyEv
FN:341,_ZN38Propagator_PropagateTLEIntegrator_TestC2Ev
FN:341,_ZN38Propagator_PropagateTLEIntegrator_Test8TestBodyEv
FN:341,_ZN38Propagator_PropagateTLEIntegrator_TestD2Ev
FN:341,_ZN38Propagator_PropagateTLEIntegrator_TestD0Ev
FN:398,_ZN36Propagator_EraseEmptyPropagator_TestD0Ev
FN:398,_ZN36Propagator_EraseEmptyPropagator_Test8TestBodyEv
FN:398,_ZN36Propagator_EraseEmptyPropagator_TestD2Ev
FN:398,_ZN36Propagator_EraseEmptyPropagator_TestC2Ev
FNDA:1,_ZN38Propagator_PropagateTLEIntegrator_TestC2Ev
FNDA:1,_ZN35Propagator_PropagatorVsKepler2_TestD0Ev
FNDA:1,_ZN37Propagator_PropagateVVIntegrator_Test8TestBodyEv
FNDA:1,_ZN34Propagator_PropagatorVsKepler_TestD0Ev
FNDA:1,_ZN37Propagator_FindNearestLowerValue_Test8TestBodyEv
FNDA:1,_ZN36Propagator_EraseEmptyPropagator_TestD0Ev
FNDA:1,_ZN37Propagator_PropagateVVIntegrator_TestC2Ev
FNDA:1,_ZN37Propagator_PropagateVVIntegrator_TestD2Ev
FNDA:1,_ZN30Propagator_Initialization_TestD2Ev
FNDA:1,_ZN30Propagator_EraseDataRange_Test8TestBodyEv
FNDA:1,_ZN36Propagator_EraseEmptyPropagator_Test8TestBodyEv
FNDA:1,_ZN30Propagator_EraseDataRange_TestD2Ev
FNDA:1,_ZN30Propagator_Initialization_TestC2Ev
FNDA:1,_ZN30Propagator_Initialization_TestD0Ev
FNDA:1,_ZN38Propagator_PropagateTLEIntegrator_TestD2Ev
FNDA:1,_ZN35Propagator_PropagatorVsKepler2_TestC2Ev
FNDA:1,_ZN37Propagator_FindNearestLowerValue_TestC2Ev
FNDA:1,_ZN37Propagator_PropagateVVIntegrator_TestD0Ev
FNDA:1,_ZN38Propagator_PropagateTLEIntegrator_Test8TestBodyEv
FNDA:1,_ZN34Propagator_PropagatorVsKepler_TestC2Ev
FNDA:1,_ZN34Propagator_PropagatorVsKepler_Test8TestBodyEv
FNDA:1,_ZN30Propagator_EraseDataRange_TestC2Ev
FNDA:1,_ZN36Propagator_EraseEmptyPropagator_TestD2Ev
FNDA:1,_ZN34Propagator_PropagatorVsKepler_TestD2Ev
FNDA:1,_ZN35Propagator_PropagatorVsKepler2_Test8TestBodyEv
FNDA:1,_ZN35Propagator_PropagatorVsKepler2_TestD2Ev
FNDA:1,_ZN38Propagator_PropagateTLEIntegrator_TestD0Ev
FNDA:1,_ZN36Propagator_EraseEmptyPropagator_TestC2Ev
FNDA:1,_ZN30Propagator_EraseDataRange_TestD0Ev
FNDA:1,_ZN30Propagator_Initialization_Test8TestBodyEv
FNDA:1,_ZN37Propagator_FindNearestLowerValue_TestD2Ev
FNDA:1,_ZN37Propagator_FindNearestLowerValue_TestD0Ev
FNF:32
FNH:32
DA:17,4
DA:19,2
DA:20,2
DA:21,3
DA:22,2
DA:23,4
DA:24,2
DA:25,1
DA:27,4
DA:29,1
DA:30,1
DA:31,2
DA:32,1
DA:33,3
DA:34,2
DA:37,1
DA:38,1
DA:40,1
DA:41,1
DA:42,1
DA:43,1
DA:45,1
DA:46,2
DA:48,1
DA:49,2
DA:51,1
DA:52,2
DA:55,1
DA:56,1
DA:59,4
DA:61,1
DA:62,1
DA:63,2
DA:64,1
DA:65,3
DA:66,2
DA:69,1
DA:70,1
DA:72,1
DA:73,1
DA:74,1
DA:75,1
DA:76,1
DA:77,1
DA:79,1
DA:81,1
DA:82,2
DA:83,2
DA:85,1
DA:86,1
DA:87,2
DA:88,2
DA:91,4
DA:93,1
DA:95,1
DA:97,1
DA:98,1
DA:99,1
DA:101,2
DA:102,1
DA:107,1
DA:112,1
DA:113,1
DA:114,3
DA:116,2
DA:122,1
DA:133,1
DA:135,1
DA:136,1
DA:137,1
DA:138,1
DA:139,1
DA:140,1
DA:141,1
DA:144,1
DA:145,1
DA:146,2
DA:147,1
DA:148,1
DA:149,1
DA:150,1
DA:151,1
DA:152,1
DA:155,4
DA:157,1
DA:158,1
DA:160,1
DA:162,1
DA:163,1
DA:164,1
DA:166,2
DA:172,1
DA:173,1
DA:174,1
DA:180,1
DA:181,1
DA:182,1
DA:183,3
DA:185,2
DA:191,1
DA:200,1
DA:201,1
DA:202,1
DA:204,1
DA:205,1
DA:206,1
DA:207,1
DA:209,1
DA:210,1
DA:211,1
DA:212,1
DA:215,2
DA:218,1
DA:220,1
DA:221,1
DA:222,1
DA:224,1
DA:225,1
DA:226,1
DA:228,1
DA:229,2
DA:230,2
DA:245,4
DA:247,1
DA:248,1
DA:250,1
DA:252,1
DA:253,1
DA:254,1
DA:256,2
DA:257,2
DA:263,1
DA:264,1
DA:265,1
DA:271,1
DA:272,1
DA:273,3
DA:275,2
DA:281,1
DA:290,1
DA:291,1
DA:292,1
DA:294,1
DA:295,1
DA:296,1
DA:297,1
DA:299,1
DA:300,1
DA:301,1
DA:302,1
DA:305,2
DA:308,1
DA:310,1
DA:311,1
DA:312,1
DA:314,1
DA:315,1
DA:316,1
DA:318,1
DA:319,2
DA:320,2
DA:322,1
DA:323,1
DA:324,1
DA:325,1
DA:326,1
DA:341,4
DA:343,1
DA:344,7
DA:345,1
DA:346,1
DA:347,1
DA:348,1
DA:349,3
DA:351,1
DA:353,2
DA:359,1
DA:370,1
DA:371,1
DA:372,1
DA:373,1
DA:374,1
DA:375,1
DA:376,1
DA:378,2
DA:384,1
DA:385,1
DA:386,2
DA:387,1
DA:388,1
DA:389,1
DA:390,1
DA:391,1
DA:392,1
DA:394,1
DA:395,1
DA:398,4
DA:400,2
DA:401,7
DA:402,2
DA:403,2
DA:404,1
DA:405,2
DA:406,4
DA:408,2
DA:410,3
DA:412,1
DA:413,1
LF:208
LH:208
end_of_record
TN:
SF:/home/usr/Sources/SDK/IO.SDK.Tests/QuaternionTests.cpp
FN:5,_ZN30Quaternion_Initialization_Test8TestBodyEv
FN:5,_ZN30Quaternion_Initialization_TestC2Ev
FN:5,_ZN30Quaternion_Initialization_TestD2Ev
FN:5,_ZN30Quaternion_Initialization_TestD0Ev
FN:38,_ZN24Quaternion_Multiply_TestC2Ev
FN:38,_ZN24Quaternion_Multiply_TestD0Ev
FN:38,_ZN24Quaternion_Multiply_Test8TestBodyEv
FN:38,_ZN24Quaternion_Multiply_TestD2Ev
FN:56,_ZN25Quaternion_GetMatrix_TestC2Ev
FN:56,_ZN25Quaternion_GetMatrix_TestD2Ev
FN:56,_ZN25Quaternion_GetMatrix_Test8TestBodyEv
FN:56,_ZN25Quaternion_GetMatrix_TestD0Ev
FN:72,_ZN25Quaternion_Magnitude_TestC2Ev
FN:72,_ZN25Quaternion_Magnitude_TestD0Ev
FN:72,_ZN25Quaternion_Magnitude_Test8TestBodyEv
FN:72,_ZN25Quaternion_Magnitude_TestD2Ev
FN:80,_ZN25Quaternion_Normalize_Test8TestBodyEv
FN:80,_ZN25Quaternion_Normalize_TestC2Ev
FN:80,_ZN25Quaternion_Normalize_TestD0Ev
FN:80,_ZN25Quaternion_Normalize_TestD2Ev
FN:91,_ZN25Quaternion_Conjugate_TestD2Ev
FN:91,_ZN25Quaternion_Conjugate_TestD0Ev
FN:91,_ZN25Quaternion_Conjugate_Test8TestBodyEv
FN:91,_ZN25Quaternion_Conjugate_TestC2Ev
FN:102,_ZN26Quaternion_Assignment_Test8TestBodyEv
FN:102,_ZN26Quaternion_Assignment_TestD0Ev
FN:102,_ZN26Quaternion_Assignment_TestD2Ev
FN:102,_ZN26Quaternion_Assignment_TestC2Ev
FNDA:1,_ZN25Quaternion_Normalize_Test8TestBodyEv
FNDA:1,_ZN25Quaternion_GetMatrix_Test8TestBodyEv
FNDA:1,_ZN25Quaternion_Magnitude_Test8TestBodyEv
FNDA:1,_ZN25Quaternion_GetMatrix_TestD2Ev
FNDA:1,_ZN26Quaternion_Assignment_TestD0Ev
FNDA:1,_ZN26Quaternion_Assignment_Test8TestBodyEv
FNDA:1,_ZN25Quaternion_Conjugate_TestD0Ev
FNDA:1,_ZN25Quaternion_Magnitude_TestC2Ev
FNDA:1,_ZN25Quaternion_Magnitude_TestD0Ev
FNDA:1,_ZN24Quaternion_Multiply_TestC2Ev
FNDA:1,_ZN24Quaternion_Multiply_TestD0Ev
FNDA:1,_ZN30Quaternion_Initialization_Test8TestBodyEv
FNDA:1,_ZN25Quaternion_GetMatrix_TestC2Ev
FNDA:1,_ZN25Quaternion_Conjugate_TestD2Ev
FNDA:1,_ZN24Quaternion_Multiply_Test8TestBodyEv
FNDA:1,_ZN25Quaternion_Normalize_TestD2Ev
FNDA:1,_ZN24Quaternion_Multiply_TestD2Ev
FNDA:1,_ZN30Quaternion_Initialization_TestD0Ev
FNDA:1,_ZN25Quaternion_Normalize_TestD0Ev
FNDA:1,_ZN30Quaternion_Initialization_TestD2Ev
FNDA:1,_ZN26Quaternion_Assignment_TestC2Ev
FNDA:1,_ZN25Quaternion_Conjugate_Test8TestBodyEv
FNDA:1,_ZN25Quaternion_Conjugate_TestC2Ev
FNDA:1,_ZN25Quaternion_Magnitude_TestD2Ev
FNDA:1,_ZN30Quaternion_Initialization_TestC2Ev
FNDA:1,_ZN25Quaternion_Normalize_TestC2Ev
FNDA:1,_ZN26Quaternion_Assignment_TestD2Ev
FNDA:1,_ZN25Quaternion_GetMatrix_TestD0Ev
FNF:28
FNH:28
DA:5,4
DA:7,1
DA:8,1
DA:9,1
DA:10,1
DA:11,1
DA:13,1
DA:14,1
DA:15,1
DA:16,1
DA:17,1
DA:19,1
DA:20,1
DA:21,1
DA:22,1
DA:23,1
DA:25,1
DA:26,1
DA:27,1
DA:28,1
DA:29,1
DA:31,1
DA:32,1
DA:33,1
DA:34,1
DA:35,1
DA:38,4
DA:40,1
DA:41,1
DA:43,1
DA:44,1
DA:45,1
DA:46,1
DA:47,1
DA:49,1
DA:50,1
DA:51,1
DA:52,1
DA:53,1
DA:56,4
DA:58,1
DA:60,1
DA:61,1
DA:62,1
DA:63,1
DA:64,1
DA:65,1
DA:66,1
DA:67,1
DA:68,1
DA:69,1
DA:72,4
DA:74,1
DA:76,1
DA:77,1
DA:80,4
DA:82,1
DA:84,1
DA:85,1
DA:86,1
DA:87,1
DA:88,1
DA:91,4
DA:93,1
DA:95,1
DA:96,1
DA:97,1
DA:98,1
DA:99,1
DA:102,4
DA:104,1
DA:105,1
DA:106,1
DA:107,1
DA:108,1
DA:109,1
DA:110,1
LF:77
LH:77
end_of_record
TN:
SF:/home/usr/Sources/SDK/IO.SDK.Tests/RADecTests.cpp
FN:4,_ZN25RADec_Initialization_TestD2Ev
FN:4,_ZN25RADec_Initialization_TestD0Ev
FN:4,_ZN25RADec_Initialization_TestC2Ev
FN:4,_ZN25RADec_Initialization_Test8TestBodyEv
FNDA:1,_ZN25RADec_Initialization_Test8TestBodyEv
FNDA:1,_ZN25RADec_Initialization_TestD0Ev
FNDA:1,_ZN25RADec_Initialization_TestD2Ev
FNDA:1,_ZN25RADec_Initialization_TestC2Ev
FNF:4
FNH:4
DA:4,4
DA:6,1
DA:7,1
DA:8,1
DA:9,1
LF:5
LH:5
end_of_record
TN:
SF:/home/usr/Sources/SDK/IO.SDK.Tests/RectangularTests.cpp
FN:4,_ZN31Rectangular_Initialization_TestC2Ev
FN:4,_ZN31Rectangular_Initialization_TestD0Ev
FN:4,_ZN31Rectangular_Initialization_Test8TestBodyEv
FN:4,_ZN31Rectangular_Initialization_TestD2Ev
FNDA:1,_ZN31Rectangular_Initialization_TestC2Ev
FNDA:1,_ZN31Rectangular_Initialization_TestD0Ev
FNDA:1,_ZN31Rectangular_Initialization_TestD2Ev
FNDA:1,_ZN31Rectangular_Initialization_Test8TestBodyEv
FNF:4
FNH:4
DA:4,4
DA:6,1
DA:7,1
DA:8,1
DA:9,1
LF:5
LH:5
end_of_record
TN:
SF:/home/usr/Sources/SDK/IO.SDK.Tests/RetrogradeAttitudeTests.cpp
FN:18,_ZN38RetrogradeAttitude_GetOrientation_TestD0Ev
FN:18,_ZN38RetrogradeAttitude_GetOrientation_TestD2Ev
FN:18,_ZN38RetrogradeAttitude_GetOrientation_TestC2Ev
FN:18,_ZN38RetrogradeAttitude_GetOrientation_Test8TestBodyEv
FN:52,_ZN52RetrogradeAttitude_GetOrientationNotBeforeEpoch_TestD0Ev
FN:52,_ZN52RetrogradeAttitude_GetOrientationNotBeforeEpoch_TestD2Ev
FN:52,_ZN52RetrogradeAttitude_GetOrientationNotBeforeEpoch_Test8TestBodyEv
FN:52,_ZN52RetrogradeAttitude_GetOrientationNotBeforeEpoch_TestC2Ev
FNDA:1,_ZN52RetrogradeAttitude_GetOrientationNotBeforeEpoch_TestD2Ev
FNDA:1,_ZN52RetrogradeAttitude_GetOrientationNotBeforeEpoch_Test8TestBodyEv
FNDA:1,_ZN52RetrogradeAttitude_GetOrientationNotBeforeEpoch_TestD0Ev
FNDA:1,_ZN38RetrogradeAttitude_GetOrientation_TestD2Ev
FNDA:1,_ZN38RetrogradeAttitude_GetOrientation_TestD0Ev
FNDA:1,_ZN38RetrogradeAttitude_GetOrientation_Test8TestBodyEv
FNDA:1,_ZN38RetrogradeAttitude_GetOrientation_TestC2Ev
FNDA:1,_ZN52RetrogradeAttitude_GetOrientationNotBeforeEpoch_TestC2Ev
FNF:8
FNH:8
DA:18,4
DA:20,1
DA:22,2
DA:24,3
DA:26,1
DA:28,3
DA:30,1
DA:31,1
DA:33,1
DA:35,1
DA:36,1
DA:38,1
DA:39,1
DA:41,1
DA:44,2
DA:46,1
DA:47,2
DA:48,1
DA:49,1
DA:52,4
DA:54,1
DA:56,2
DA:58,3
DA:60,1
DA:62,3
DA:64,1
DA:65,1
DA:67,1
DA:69,1
DA:70,1
DA:72,2
DA:73,1
DA:75,1
DA:77,2
DA:79,1
DA:80,2
DA:81,1
DA:82,1
DA:83,3
DA:84,3
DA:85,1
LF:41
LH:41
end_of_record
TN:
SF:/home/usr/Sources/SDK/IO.SDK.Tests/RotationTests.cpp
FN:9,_ZN44StateOrientation_InitializationByValues_TestD0Ev
FN:9,_ZN44StateOrientation_InitializationByValues_TestD2Ev
FN:9,_ZN44StateOrientation_InitializationByValues_TestC2Ev
FN:9,_ZN44StateOrientation_InitializationByValues_Test8TestBodyEv
FN:23,_ZN46StateOrientation_InitializationFromAngles_TestC2Ev
FN:23,_ZN46StateOrientation_InitializationFromAngles_TestD0Ev
FN:23,_ZN46StateOrientation_InitializationFromAngles_TestD2Ev
FN:23,_ZN46StateOrientation_InitializationFromAngles_Test8TestBodyEv
FN:37,_ZN50StateOrientation_InitializationFromQuaternion_TestD0Ev
FN:37,_ZN50StateOrientation_InitializationFromQuaternion_TestD2Ev
FN:37,_ZN50StateOrientation_InitializationFromQuaternion_Test8TestBodyEv
FN:37,_ZN50StateOrientation_InitializationFromQuaternion_TestC2Ev
FNDA:1,_ZN46StateOrientation_InitializationFromAngles_Test8TestBodyEv
FNDA:1,_ZN44StateOrientation_InitializationByValues_TestC2Ev
FNDA:1,_ZN44StateOrientation_InitializationByValues_Test8TestBodyEv
FNDA:1,_ZN50StateOrientation_InitializationFromQuaternion_TestC2Ev
FNDA:1,_ZN44StateOrientation_InitializationByValues_TestD2Ev
FNDA:1,_ZN44StateOrientation_InitializationByValues_TestD0Ev
FNDA:1,_ZN46StateOrientation_InitializationFromAngles_TestD0Ev
FNDA:1,_ZN46StateOrientation_InitializationFromAngles_TestD2Ev
FNDA:1,_ZN50StateOrientation_InitializationFromQuaternion_Test8TestBodyEv
FNDA:1,_ZN50StateOrientation_InitializationFromQuaternion_TestD2Ev
FNDA:1,_ZN46StateOrientation_InitializationFromAngles_TestC2Ev
FNDA:1,_ZN50StateOrientation_InitializationFromQuaternion_TestD0Ev
FNF:12
FNH:12
DA:9,4
DA:11,2
DA:12,1
DA:13,1
DA:14,1
DA:15,1
DA:16,1
DA:17,1
DA:18,1
DA:19,1
DA:20,3
DA:23,4
DA:25,2
DA:26,1
DA:27,1
DA:28,1
DA:29,1
DA:30,1
DA:31,1
DA:32,1
DA:33,1
DA:34,3
DA:37,4
DA:39,2
DA:40,1
DA:41,1
DA:43,1
DA:44,1
DA:45,1
DA:46,1
DA:47,1
DA:48,1
DA:49,1
DA:50,1
DA:51,3
LF:35
LH:35
end_of_record
TN:
SF:/home/usr/Sources/SDK/IO.SDK.Tests/SiteFrameTests.cpp
FN:10,_ZN29SiteFrame_Initialization_TestC2Ev
FN:10,_ZN29SiteFrame_Initialization_TestD2Ev
FN:10,_ZN29SiteFrame_Initialization_Test8TestBodyEv
FN:10,_ZN29SiteFrame_Initialization_TestD0Ev
FNDA:1,_ZN29SiteFrame_Initialization_TestD2Ev
FNDA:1,_ZN29SiteFrame_Initialization_TestC2Ev
FNDA:1,_ZN29SiteFrame_Initialization_TestD0Ev
FNDA:1,_ZN29SiteFrame_Initialization_Test8TestBodyEv
FNF:4
FNH:4
DA:10,4
DA:12,1
DA:13,1
DA:14,1
DA:15,2
DA:16,1
DA:18,2
DA:19,1
DA:21,2
DA:22,1
DA:24,2
DA:25,1
DA:27,2
DA:28,1
DA:30,2
DA:31,1
DA:33,2
DA:34,1
DA:36,2
DA:37,1
DA:38,1
DA:39,1
DA:41,2
DA:42,1
DA:43,1
DA:44,1
DA:46,2
DA:47,1
LF:28
LH:28
end_of_record
TN:
SF:/home/usr/Sources/SDK/IO.SDK.Tests/SiteTests.cpp
FN:8,_ZN19Site_GetRADDec_TestD0Ev
FN:8,_ZN19Site_GetRADDec_Test8TestBodyEv
FN:8,_ZN19Site_GetRADDec_TestC2Ev
FN:8,_ZN19Site_GetRADDec_TestD2Ev
FN:19,_ZN22Site_Illumination_TestD2Ev
FN:19,_ZN22Site_Illumination_Test8TestBodyEv
FN:19,_ZN22Site_Illumination_TestC2Ev
FN:19,_ZN22Site_Illumination_TestD0Ev
FN:32,_ZN15Site_IsDay_TestC2Ev
FN:32,_ZN15Site_IsDay_TestD0Ev
FN:32,_ZN15Site_IsDay_Test8TestBodyEv
FN:32,_ZN15Site_IsDay_TestD2Ev
FN:43,_ZN17Site_IsNight_TestD0Ev
FN:43,_ZN17Site_IsNight_TestC2Ev
FN:43,_ZN17Site_IsNight_TestD2Ev
FN:43,_ZN17Site_IsNight_Test8TestBodyEv
FN:54,_ZN24Site_FindDayWindows_TestC2Ev
FN:54,_ZN24Site_FindDayWindows_TestD2Ev
FN:54,_ZN24Site_FindDayWindows_Test8TestBodyEv
FN:54,_ZN24Site_FindDayWindows_TestD0Ev
FN:68,_ZN26Site_FindNightWindows_TestD0Ev
FN:68,_ZN26Site_FindNightWindows_TestC2Ev
FN:68,_ZN26Site_FindNightWindows_TestD2Ev
FN:68,_ZN26Site_FindNightWindows_Test8TestBodyEv
FN:81,_ZN24Site_GetStateVector_TestD2Ev
FN:81,_ZN24Site_GetStateVector_TestC2Ev
FN:81,_ZN24Site_GetStateVector_TestD0Ev
FN:81,_ZN24Site_GetStateVector_Test8TestBodyEv
FN:95,_ZN29Site_ConvertToLocalFrame_TestC2Ev
FN:95,_ZN29Site_ConvertToLocalFrame_TestD2Ev
FN:95,_ZN29Site_ConvertToLocalFrame_TestD0Ev
FN:95,_ZN29Site_ConvertToLocalFrame_Test8TestBodyEv
FN:114,_ZN34Site_GetHorizontalCoordinates_TestD0Ev
FN:114,_ZN34Site_GetHorizontalCoordinates_TestD2Ev
FN:114,_ZN34Site_GetHorizontalCoordinates_TestC2Ev
FN:114,_ZN34Site_GetHorizontalCoordinates_Test8TestBodyEv
FN:146,_ZN45Site_FindWindowsOnIlluminationConstraint_TestD2Ev
FN:146,_ZN45Site_FindWindowsOnIlluminationConstraint_TestC2Ev
FN:146,_ZN45Site_FindWindowsOnIlluminationConstraint_Test8TestBodyEv
FN:146,_ZN45Site_FindWindowsOnIlluminationConstraint_TestD0Ev
FNDA:1,_ZN45Site_FindWindowsOnIlluminationConstraint_TestD0Ev
FNDA:1,_ZN24Site_GetStateVector_TestC2Ev
FNDA:1,_ZN19Site_GetRADDec_TestC2Ev
FNDA:1,_ZN24Site_GetStateVector_TestD0Ev
FNDA:1,_ZN15Site_IsDay_TestD0Ev
FNDA:1,_ZN17Site_IsNight_TestD0Ev
FNDA:1,_ZN15Site_IsDay_Test8TestBodyEv
FNDA:1,_ZN15Site_IsDay_TestD2Ev
FNDA:1,_ZN26Site_FindNightWindows_TestD2Ev
FNDA:1,_ZN19Site_GetRADDec_TestD2Ev
FNDA:1,_ZN29Site_ConvertToLocalFrame_Test8TestBodyEv
FNDA:1,_ZN29Site_ConvertToLocalFrame_TestD0Ev
FNDA:1,_ZN17Site_IsNight_TestD2Ev
FNDA:1,_ZN34Site_GetHorizontalCoordinates_Test8TestBodyEv
FNDA:1,_ZN22Site_Illumination_TestD0Ev
FNDA:1,_ZN24Site_FindDayWindows_TestD0Ev
FNDA:1,_ZN26Site_FindNightWindows_Test8TestBodyEv
FNDA:1,_ZN17Site_IsNight_TestC2Ev
FNDA:1,_ZN17Site_IsNight_Test8TestBodyEv
FNDA:1,_ZN24Site_GetStateVector_Test8TestBodyEv
FNDA:1,_ZN24Site_GetStateVector_TestD2Ev
FNDA:1,_ZN45Site_FindWindowsOnIlluminationConstraint_TestD2Ev
FNDA:1,_ZN19Site_GetRADDec_TestD0Ev
FNDA:1,_ZN26Site_FindNightWindows_TestD0Ev
FNDA:1,_ZN29Site_ConvertToLocalFrame_TestC2Ev
FNDA:1,_ZN34Site_GetHorizontalCoordinates_TestD0Ev
FNDA:1,_ZN24Site_FindDayWindows_TestC2Ev
FNDA:1,_ZN22Site_Illumination_TestD2Ev
FNDA:1,_ZN45Site_FindWindowsOnIlluminationConstraint_TestC2Ev
FNDA:1,_ZN34Site_GetHorizontalCoordinates_TestD2Ev
FNDA:1,_ZN29Site_ConvertToLocalFrame_TestD2Ev
FNDA:1,_ZN22Site_Illumination_Test8TestBodyEv
FNDA:1,_ZN34Site_GetHorizontalCoordinates_TestC2Ev
FNDA:1,_ZN19Site_GetRADDec_Test8TestBodyEv
FNDA:1,_ZN26Site_FindNightWindows_TestC2Ev
FNDA:1,_ZN45Site_FindWindowsOnIlluminationConstraint_Test8TestBodyEv
FNDA:1,_ZN24Site_FindDayWindows_Test8TestBodyEv
FNDA:1,_ZN22Site_Illumination_TestC2Ev
FNDA:1,_ZN24Site_FindDayWindows_TestD2Ev
FNDA:1,_ZN15Site_IsDay_TestC2Ev
FNF:40
FNH:40
DA:8,4
DA:10,1
DA:11,1
DA:12,1
DA:13,1
DA:14,1
DA:15,1
DA:16,1
DA:19,4
DA:21,1
DA:22,1
DA:23,1
DA:24,2
DA:25,1
DA:26,1
DA:27,1
DA:28,1
DA:29,3
DA:32,4
DA:34,1
DA:35,1
DA:36,1
DA:37,1
DA:38,1
DA:39,1
DA:40,1
DA:43,4
DA:45,1
DA:46,1
DA:47,1
DA:48,1
DA:49,1
DA:50,1
DA:51,1
DA:54,4
DA:56,1
DA:57,1
DA:58,1
DA:59,3
DA:61,1
DA:62,2
DA:63,2
DA:64,2
DA:65,2
DA:68,4
DA:70,1
DA:71,1
DA:72,1
DA:74,3
DA:76,1
DA:77,2
DA:78,2
DA:81,4
DA:83,1
DA:84,1
DA:85,1
DA:86,2
DA:87,1
DA:88,1
DA:89,1
DA:90,1
DA:91,1
DA:92,1
DA:95,4
DA:97,1
DA:98,1
DA:101,1
DA:102,2
DA:103,2
DA:104,1
DA:105,1
DA:106,1
DA:107,1
DA:108,1
DA:109,1
DA:110,1
DA:111,1
DA:114,4
DA:116,1
DA:117,1
DA:118,1
DA:121,1
DA:122,1
DA:123,1
DA:124,1
DA:125,1
DA:128,1
DA:129,1
DA:130,1
DA:131,1
DA:134,1
DA:135,1
DA:136,1
DA:137,1
DA:140,1
DA:141,1
DA:142,1
DA:143,1
DA:146,4
DA:148,1
DA:149,1
DA:150,1
DA:151,3
DA:153,1
DA:154,2
DA:155,2
DA:156,2
DA:157,2
LF:108
LH:108
end_of_record
TN:
SF:/home/usr/Sources/SDK/IO.SDK.Tests/SpacecraftClockKernelTests.cpp
FN:12,_ZN45SpacecraftClockKernel_BuildGenericKernel_Test8TestBodyEv
FN:12,_ZN45SpacecraftClockKernel_BuildGenericKernel_TestC2Ev
FN:12,_ZN45SpacecraftClockKernel_BuildGenericKernel_TestD2Ev
FN:12,_ZN45SpacecraftClockKernel_BuildGenericKernel_TestD0Ev
FN:25,_ZN38SpacecraftClockKernel_GetCoverage_Test8TestBodyEv
FN:25,_ZN38SpacecraftClockKernel_GetCoverage_TestC2Ev
FN:25,_ZN38SpacecraftClockKernel_GetCoverage_TestD0Ev
FN:25,_ZN38SpacecraftClockKernel_GetCoverage_TestD2Ev
FN:39,_ZN39SpacecraftClockKernel_ConvertToTDB_TestD2Ev
FN:39,_ZN39SpacecraftClockKernel_ConvertToTDB_Test8TestBodyEv
FN:39,_ZN39SpacecraftClockKernel_ConvertToTDB_TestD0Ev
FN:39,_ZN39SpacecraftClockKernel_ConvertToTDB_TestC2Ev
FN:51,_ZN41SpacecraftClockKernel_ConvertToClock_TestD2Ev
FN:51,_ZN41SpacecraftClockKernel_ConvertToClock_TestD0Ev
FN:51,_ZN41SpacecraftClockKernel_ConvertToClock_Test8TestBodyEv
FN:51,_ZN41SpacecraftClockKernel_ConvertToClock_TestC2Ev
FN:63,_ZN48SpacecraftClockKernel_ConvertToEncodedClock_Test8TestBodyEv
FN:63,_ZN48SpacecraftClockKernel_ConvertToEncodedClock_TestD2Ev
FN:63,_ZN48SpacecraftClockKernel_ConvertToEncodedClock_TestC2Ev
FN:63,_ZN48SpacecraftClockKernel_ConvertToEncodedClock_TestD0Ev
FN:77,_ZN40SpacecraftClockKernel_GetResolution_TestD2Ev
FN:77,_ZN40SpacecraftClockKernel_GetResolution_TestC2Ev
FN:77,_ZN40SpacecraftClockKernel_GetResolution_Test8TestBodyEv
FN:77,_ZN40SpacecraftClockKernel_GetResolution_TestD0Ev
FN:90,_ZN44SpacecraftClockKernel_GetSecondsPerTick_TestD0Ev
FN:90,_ZN44SpacecraftClockKernel_GetSecondsPerTick_TestC2Ev
FN:90,_ZN44SpacecraftClockKernel_GetSecondsPerTick_Test8TestBodyEv
FN:90,_ZN44SpacecraftClockKernel_GetSecondsPerTick_TestD2Ev
FN:103,_ZN45SpacecraftClockKernel_GetTicksPerSeconds_TestC2Ev
FN:103,_ZN45SpacecraftClockKernel_GetTicksPerSeconds_TestD2Ev
FN:103,_ZN45SpacecraftClockKernel_GetTicksPerSeconds_Test8TestBodyEv
FN:103,_ZN45SpacecraftClockKernel_GetTicksPerSeconds_TestD0Ev
FNDA:1,_ZN45SpacecraftClockKernel_GetTicksPerSeconds_TestC2Ev
FNDA:1,_ZN40SpacecraftClockKernel_GetResolution_TestD2Ev
FNDA:1,_ZN39SpacecraftClockKernel_ConvertToTDB_TestD2Ev
FNDA:1,_ZN39SpacecraftClockKernel_ConvertToTDB_Test8TestBodyEv
FNDA:1,_ZN45SpacecraftClockKernel_BuildGenericKernel_Test8TestBodyEv
FNDA:1,_ZN38SpacecraftClockKernel_GetCoverage_Test8TestBodyEv
FNDA:1,_ZN38SpacecraftClockKernel_GetCoverage_TestC2Ev
FNDA:1,_ZN44SpacecraftClockKernel_GetSecondsPerTick_TestD0Ev
FNDA:1,_ZN48SpacecraftClockKernel_ConvertToEncodedClock_Test8TestBodyEv
FNDA:1,_ZN41SpacecraftClockKernel_ConvertToClock_TestD2Ev
FNDA:1,_ZN40SpacecraftClockKernel_GetResolution_TestC2Ev
FNDA:1,_ZN44SpacecraftClockKernel_GetSecondsPerTick_TestC2Ev
FNDA:1,_ZN45SpacecraftClockKernel_BuildGenericKernel_TestC2Ev
FNDA:1,_ZN45SpacecraftClockKernel_GetTicksPerSeconds_TestD2Ev
FNDA:1,_ZN45SpacecraftClockKernel_GetTicksPerSeconds_Test8TestBodyEv
FNDA:1,_ZN48SpacecraftClockKernel_ConvertToEncodedClock_TestD2Ev
FNDA:1,_ZN44SpacecraftClockKernel_GetSecondsPerTick_Test8TestBodyEv
FNDA:1,_ZN41SpacecraftClockKernel_ConvertToClock_TestD0Ev
FNDA:1,_ZN48SpacecraftClockKernel_ConvertToEncodedClock_TestC2Ev
FNDA:1,_ZN45SpacecraftClockKernel_BuildGenericKernel_TestD2Ev
FNDA:1,_ZN41SpacecraftClockKernel_ConvertToClock_TestC2Ev
FNDA:1,_ZN44SpacecraftClockKernel_GetSecondsPerTick_TestD2Ev
FNDA:1,_ZN45SpacecraftClockKernel_GetTicksPerSeconds_TestD0Ev
FNDA:1,_ZN41SpacecraftClockKernel_ConvertToClock_Test8TestBodyEv
FNDA:1,_ZN38SpacecraftClockKernel_GetCoverage_TestD0Ev
FNDA:1,_ZN40SpacecraftClockKernel_GetResolution_Test8TestBodyEv
FNDA:1,_ZN39SpacecraftClockKernel_ConvertToTDB_TestD0Ev
FNDA:1,_ZN39SpacecraftClockKernel_ConvertToTDB_TestC2Ev
FNDA:1,_ZN40SpacecraftClockKernel_GetResolution_TestD0Ev
FNDA:1,_ZN48SpacecraftClockKernel_ConvertToEncodedClock_TestD0Ev
FNDA:1,_ZN38SpacecraftClockKernel_GetCoverage_TestD2Ev
FNDA:1,_ZN45SpacecraftClockKernel_BuildGenericKernel_TestD0Ev
FNF:32
FNH:32
DA:12,4
DA:14,1
DA:15,2
DA:16,1
DA:17,3
DA:18,2
DA:20,1
DA:21,1
DA:22,1
DA:25,4
DA:27,1
DA:28,2
DA:29,1
DA:30,3
DA:31,2
DA:33,1
DA:34,1
DA:35,1
DA:36,1
DA:39,4
DA:41,1
DA:42,2
DA:43,1
DA:44,3
DA:45,2
DA:47,2
DA:48,1
DA:51,4
DA:53,1
DA:54,2
DA:55,1
DA:56,3
DA:57,2
DA:59,1
DA:60,1
DA:63,4
DA:65,1
DA:66,2
DA:67,1
DA:68,3
DA:69,2
DA:71,1
DA:74,1
DA:77,4
DA:79,1
DA:80,2
DA:81,1
DA:82,3
DA:83,2
DA:85,1
DA:87,1
DA:90,4
DA:92,1
DA:93,2
DA:94,1
DA:95,3
DA:96,2
DA:98,1
DA:100,1
DA:103,4
DA:105,1
DA:106,2
DA:107,1
DA:108,3
DA:109,2
DA:111,1
DA:113,1
LF:67
LH:67
end_of_record
TN:
SF:/home/usr/Sources/SDK/IO.SDK.Tests/SpacecraftFrameTests.cpp
FN:12,_ZN39SpacecraftFrameFile_Initialization_Test8TestBodyEv
FN:12,_ZN39SpacecraftFrameFile_Initialization_TestD0Ev
FN:12,_ZN39SpacecraftFrameFile_Initialization_TestC2Ev
FN:12,_ZN39SpacecraftFrameFile_Initialization_TestD2Ev
FNDA:1,_ZN39SpacecraftFrameFile_Initialization_TestD2Ev
FNDA:1,_ZN39SpacecraftFrameFile_Initialization_TestD0Ev
FNDA:1,_ZN39SpacecraftFrameFile_Initialization_TestC2Ev
FNDA:1,_ZN39SpacecraftFrameFile_Initialization_Test8TestBodyEv
FNF:4
FNH:4
DA:12,4
DA:14,2
DA:15,1
DA:17,1
DA:20,1
DA:21,2
DA:22,1
DA:23,3
DA:24,1
DA:25,1
DA:27,2
DA:28,1
DA:30,2
DA:31,1
DA:33,2
DA:34,1
DA:36,2
DA:37,1
DA:39,2
DA:40,1
DA:42,2
DA:43,1
DA:45,2
DA:46,1
DA:48,2
DA:49,1
LF:26
LH:26
end_of_record
TN:
SF:/home/usr/Sources/SDK/IO.SDK.Tests/SpacecraftTests.cpp
FN:13,_ZN30Spacecraft_Initialization_TestC2Ev
FN:13,_ZN30Spacecraft_Initialization_Test8TestBodyEv
FN:13,_ZN30Spacecraft_Initialization_TestD0Ev
FN:13,_ZN30Spacecraft_Initialization_TestD2Ev
FN:26,_ZN25Spacecraft_InvalidId_TestC2Ev
FN:26,_ZN25Spacecraft_InvalidId_TestD2Ev
FN:26,_ZN25Spacecraft_InvalidId_TestD0Ev
FN:26,_ZN25Spacecraft_InvalidId_Test8TestBodyEv
FN:33,_ZN26Spacecraft_AddPayload_TestD2Ev
FN:33,_ZN26Spacecraft_AddPayload_TestC2Ev
FN:33,_ZN26Spacecraft_AddPayload_Test8TestBodyEv
FN:33,_ZN26Spacecraft_AddPayload_TestD0Ev
FN:44,_ZN30Spacecraft_ReleasePayload_TestD2Ev
FN:44,_ZN30Spacecraft_ReleasePayload_TestD0Ev
FN:44,_ZN30Spacecraft_ReleasePayload_TestC2Ev
FN:44,_ZN30Spacecraft_ReleasePayload_Test8TestBodyEv
FN:56,_ZN37Spacecraft_ReleaseInvalidPayload_TestD0Ev
FN:56,_ZN37Spacecraft_ReleaseInvalidPayload_TestC2Ev
FN:56,_ZN37Spacecraft_ReleaseInvalidPayload_TestD2Ev
FN:56,_ZN37Spacecraft_ReleaseInvalidPayload_Test8TestBodyEv
FN:69,_ZN32Spacecraft_EngineInvalidISP_Test8TestBodyEv
FN:69,_ZN32Spacecraft_EngineInvalidISP_TestD2Ev
FN:69,_ZN32Spacecraft_EngineInvalidISP_TestC2Ev
FN:69,_ZN32Spacecraft_EngineInvalidISP_TestD0Ev
FN:78,_ZN37Spacecraft_EngineInvalidFuelFlow_Test8TestBodyEv
FN:78,_ZN37Spacecraft_EngineInvalidFuelFlow_TestD0Ev
FN:78,_ZN37Spacecraft_EngineInvalidFuelFlow_TestC2Ev
FN:78,_ZN37Spacecraft_EngineInvalidFuelFlow_TestD2Ev
FN:87,_ZN27Spacecraft_GetFuelTank_TestD0Ev
FN:87,_ZN27Spacecraft_GetFuelTank_TestD2Ev
FN:87,_ZN27Spacecraft_GetFuelTank_TestC2Ev
FN:87,_ZN27Spacecraft_GetFuelTank_Test8TestBodyEv
FN:97,_ZN41Spacecraft_EngineInvalidSerialNumber_TestD0Ev
FN:97,_ZN41Spacecraft_EngineInvalidSerialNumber_Test8TestBodyEv
FN:97,_ZN41Spacecraft_EngineInvalidSerialNumber_TestC2Ev
FN:97,_ZN41Spacecraft_EngineInvalidSerialNumber_TestD2Ev
FN:106,_ZN36Spacecraft_FuelTankOverQuantity_Test8TestBodyEv
FN:106,_ZN36Spacecraft_FuelTankOverQuantity_TestC2Ev
FN:106,_ZN36Spacecraft_FuelTankOverQuantity_TestD2Ev
FN:106,_ZN36Spacecraft_FuelTankOverQuantity_TestD0Ev
FN:114,_ZN41Spacecraft_FuelTankEmptySerialNumber_TestC2Ev
FN:114,_ZN41Spacecraft_FuelTankEmptySerialNumber_TestD0Ev
FN:114,_ZN41Spacecraft_FuelTankEmptySerialNumber_TestD2Ev
FN:114,_ZN41Spacecraft_FuelTankEmptySerialNumber_Test8TestBodyEv
FN:122,_ZN39Spacecraft_FuelTankInvalidCapacity_TestC2Ev
FN:122,_ZN39Spacecraft_FuelTankInvalidCapacity_TestD2Ev
FN:122,_ZN39Spacecraft_FuelTankInvalidCapacity_Test8TestBodyEv
FN:122,_ZN39Spacecraft_FuelTankInvalidCapacity_TestD0Ev
FN:130,_ZN39Spacecraft_FuelTankInvalidQuantity_TestC2Ev
FN:130,_ZN39Spacecraft_FuelTankInvalidQuantity_Test8TestBodyEv
FN:130,_ZN39Spacecraft_FuelTankInvalidQuantity_TestD2Ev
FN:130,_ZN39Spacecraft_FuelTankInvalidQuantity_TestD0Ev
FN:138,_ZN35Spacecraft_FuelTankInvalidName_TestD0Ev
FN:138,_ZN35Spacecraft_FuelTankInvalidName_TestC2Ev
FN:138,_ZN35Spacecraft_FuelTankInvalidName_Test8TestBodyEv
FN:138,_ZN35Spacecraft_FuelTankInvalidName_TestD2Ev
FN:146,_ZN25Spacecraft_GetEngine_TestD0Ev
FN:146,_ZN25Spacecraft_GetEngine_Test8TestBodyEv
FN:146,_ZN25Spacecraft_GetEngine_TestC2Ev
FN:146,_ZN25Spacecraft_GetEngine_TestD2Ev
FN:157,_ZN27Spacecraft_Orientation_TestC2Ev
FN:157,_ZN27Spacecraft_Orientation_Test8TestBodyEv
FN:157,_ZN27Spacecraft_Orientation_TestD2Ev
FN:157,_ZN27Spacecraft_Orientation_TestD0Ev
FNDA:1,_ZN26Spacecraft_AddPayload_TestC2Ev
FNDA:1,_ZN36Spacecraft_FuelTankOverQuantity_TestC2Ev
FNDA:1,_ZN26Spacecraft_AddPayload_Test8TestBodyEv
FNDA:1,_ZN27Spacecraft_GetFuelTank_TestD2Ev
FNDA:1,_ZN30Spacecraft_Initialization_TestC2Ev
FNDA:1,_ZN41Spacecraft_EngineInvalidSerialNumber_Test8TestBodyEv
FNDA:1,_ZN27Spacecraft_Orientation_Test8TestBodyEv
FNDA:1,_ZN41Spacecraft_EngineInvalidSerialNumber_TestC2Ev
FNDA:1,_ZN39Spacecraft_FuelTankInvalidCapacity_TestD0Ev
FNDA:1,_ZN30Spacecraft_ReleasePayload_TestD0Ev
FNDA:1,_ZN30Spacecraft_Initialization_Test8TestBodyEv
FNDA:1,_ZN35Spacecraft_FuelTankInvalidName_Test8TestBodyEv
FNDA:1,_ZN25Spacecraft_InvalidId_TestD2Ev
FNDA:1,_ZN41Spacecraft_FuelTankEmptySerialNumber_TestC2Ev
FNDA:1,_ZN41Spacecraft_EngineInvalidSerialNumber_TestD0Ev
FNDA:1,_ZN26Spacecraft_AddPayload_TestD2Ev
FNDA:1,_ZN39Spacecraft_FuelTankInvalidCapacity_TestC2Ev
FNDA:1,_ZN35Spacecraft_FuelTankInvalidName_TestC2Ev
FNDA:1,_ZN39Spacecraft_FuelTankInvalidCapacity_TestD2Ev
FNDA:1,_ZN37Spacecraft_ReleaseInvalidPayload_TestC2Ev
FNDA:1,_ZN35Spacecraft_FuelTankInvalidName_TestD0Ev
FNDA:1,_ZN39Spacecraft_FuelTankInvalidQuantity_TestC2Ev
FNDA:1,_ZN30Spacecraft_ReleasePayload_TestD2Ev
FNDA:1,_ZN27Spacecraft_Orientation_TestC2Ev
FNDA:1,_ZN37Spacecraft_ReleaseInvalidPayload_TestD0Ev
FNDA:1,_ZN27Spacecraft_GetFuelTank_TestD0Ev
FNDA:1,_ZN39Spacecraft_FuelTankInvalidCapacity_Test8TestBodyEv
FNDA:1,_ZN25Spacecraft_InvalidId_TestC2Ev
FNDA:1,_ZN32Spacecraft_EngineInvalidISP_Test8TestBodyEv
FNDA:1,_ZN36Spacecraft_FuelTankOverQuantity_Test8TestBodyEv
FNDA:1,_ZN37Spacecraft_EngineInvalidFuelFlow_Test8TestBodyEv
FNDA:1,_ZN25Spacecraft_GetEngine_TestC2Ev
FNDA:1,_ZN30Spacecraft_Initialization_TestD2Ev
FNDA:1,_ZN27Spacecraft_Orientation_TestD2Ev
FNDA:1,_ZN25Spacecraft_InvalidId_Test8TestBodyEv
FNDA:1,_ZN36Spacecraft_FuelTankOverQuantity_TestD0Ev
FNDA:1,_ZN37Spacecraft_EngineInvalidFuelFlow_TestC2Ev
FNDA:1,_ZN27Spacecraft_Orientation_TestD0Ev
FNDA:1,_ZN37Spacecraft_ReleaseInvalidPayload_TestD2Ev
FNDA:1,_ZN39Spacecraft_FuelTankInvalidQuantity_TestD0Ev
FNDA:1,_ZN41Spacecraft_EngineInvalidSerialNumber_TestD2Ev
FNDA:1,_ZN27Spacecraft_GetFuelTank_Test8TestBodyEv
FNDA:1,_ZN37Spacecraft_EngineInvalidFuelFlow_TestD2Ev
FNDA:1,_ZN30Spacecraft_ReleasePayload_Test8TestBodyEv
FNDA:1,_ZN32Spacecraft_EngineInvalidISP_TestD0Ev
FNDA:1,_ZN25Spacecraft_GetEngine_TestD2Ev
FNDA:1,_ZN32Spacecraft_EngineInvalidISP_TestC2Ev
FNDA:1,_ZN37Spacecraft_ReleaseInvalidPayload_Test8TestBodyEv
FNDA:1,_ZN41Spacecraft_FuelTankEmptySerialNumber_TestD0Ev
FNDA:1,_ZN37Spacecraft_EngineInvalidFuelFlow_TestD0Ev
FNDA:1,_ZN39Spacecraft_FuelTankInvalidQuantity_Test8TestBodyEv
FNDA:1,_ZN26Spacecraft_AddPayload_TestD0Ev
FNDA:1,_ZN30Spacecraft_ReleasePayload_TestC2Ev
FNDA:1,_ZN25Spacecraft_GetEngine_TestD0Ev
FNDA:1,_ZN25Spacecraft_GetEngine_Test8TestBodyEv
FNDA:1,_ZN27Spacecraft_GetFuelTank_TestC2Ev
FNDA:1,_ZN35Spacecraft_FuelTankInvalidName_TestD2Ev
FNDA:1,_ZN41Spacecraft_FuelTankEmptySerialNumber_TestD2Ev
FNDA:1,_ZN41Spacecraft_FuelTankEmptySerialNumber_Test8TestBodyEv
FNDA:1,_ZN36Spacecraft_FuelTankOverQuantity_TestD2Ev
FNDA:1,_ZN25Spacecraft_InvalidId_TestD0Ev
FNDA:1,_ZN32Spacecraft_EngineInvalidISP_TestD2Ev
FNDA:1,_ZN39Spacecraft_FuelTankInvalidQuantity_TestD2Ev
FNDA:1,_ZN30Spacecraft_Initialization_TestD0Ev
FNF:64
FNH:64
DA:13,4
DA:15,1
DA:16,2
DA:17,3
DA:18,1
DA:19,2
DA:20,2
DA:21,2
DA:22,1
DA:23,1
DA:26,4
DA:28,1
DA:29,2
DA:30,5
DA:33,4
DA:35,1
DA:36,2
DA:37,3
DA:38,1
DA:39,1
DA:40,1
DA:41,1
DA:44,4
DA:46,1
DA:47,2
DA:48,3
DA:49,1
DA:50,1
DA:51,1
DA:52,1
DA:53,1
DA:56,4
DA:58,1
DA:59,2
DA:60,3
DA:61,1
DA:62,1
DA:63,1
DA:64,3
DA:65,3
DA:66,1
DA:69,4
DA:71,1
DA:72,2
DA:73,3
DA:74,1
DA:75,7
DA:78,4
DA:80,1
DA:81,2
DA:82,3
DA:83,1
DA:84,7
DA:87,4
DA:89,1
DA:90,2
DA:91,3
DA:92,1
DA:93,1
DA:94,2
DA:97,4
DA:99,1
DA:100,2
DA:101,3
DA:102,1
DA:103,7
DA:106,4
DA:108,1
DA:109,2
DA:110,3
DA:111,3
DA:114,4
DA:116,1
DA:117,2
DA:118,3
DA:119,3
DA:122,4
DA:124,1
DA:125,2
DA:126,3
DA:127,3
DA:130,4
DA:132,1
DA:133,2
DA:134,3
DA:135,3
DA:138,4
DA:140,1
DA:141,2
DA:142,3
DA:143,3
DA:146,4
DA:148,1
DA:149,2
DA:150,3
DA:151,1
DA:152,1
DA:153,1
DA:154,2
DA:157,4
DA:160,1
LF:101
LH:101
end_of_record
TN:
SF:/home/usr/Sources/SDK/IO.SDK.Tests/SphericalTests.cpp
FN:4,_ZN29Spherical_Initialization_TestC2Ev
FN:4,_ZN29Spherical_Initialization_TestD2Ev
FN:4,_ZN29Spherical_Initialization_TestD0Ev
FN:4,_ZN29Spherical_Initialization_Test8TestBodyEv
FNDA:1,_ZN29Spherical_Initialization_TestD2Ev
FNDA:1,_ZN29Spherical_Initialization_TestD0Ev
FNDA:1,_ZN29Spherical_Initialization_Test8TestBodyEv
FNDA:1,_ZN29Spherical_Initialization_TestC2Ev
FNF:4
FNH:4
DA:4,4
DA:6,1
DA:7,1
DA:8,1
DA:9,1
LF:5
LH:5
end_of_record
TN:
SF:/home/usr/Sources/SDK/IO.SDK.Tests/StateVectorTests.cpp
FN:13,_ZN31StateVector_Initialization_TestC2Ev
FN:13,_ZN31StateVector_Initialization_Test8TestBodyEv
FN:13,_ZN31StateVector_Initialization_TestD2Ev
FN:13,_ZN31StateVector_Initialization_TestD0Ev
FN:43,_ZN43StateVector_GetSpecificAngularMomentum_TestC2Ev
FN:43,_ZN43StateVector_GetSpecificAngularMomentum_Test8TestBodyEv
FN:43,_ZN43StateVector_GetSpecificAngularMomentum_TestD2Ev
FN:43,_ZN43StateVector_GetSpecificAngularMomentum_TestD0Ev
FN:50,_ZN41StateVector_GetSpecificOrbitalEnergy_TestD0Ev
FN:50,_ZN41StateVector_GetSpecificOrbitalEnergy_TestC2Ev
FN:50,_ZN41StateVector_GetSpecificOrbitalEnergy_Test8TestBodyEv
FN:50,_ZN41StateVector_GetSpecificOrbitalEnergy_TestD2Ev
FN:57,_ZN33StateVector_GetSemiMajorAxis_TestD2Ev
FN:57,_ZN33StateVector_GetSemiMajorAxis_TestD0Ev
FN:57,_ZN33StateVector_GetSemiMajorAxis_Test8TestBodyEv
FN:57,_ZN33StateVector_GetSemiMajorAxis_TestC2Ev
FN:67,_ZN32StateVector_GetEccentricity_TestD0Ev
FN:67,_ZN32StateVector_GetEccentricity_TestC2Ev
FN:67,_ZN32StateVector_GetEccentricity_Test8TestBodyEv
FN:67,_ZN32StateVector_GetEccentricity_TestD2Ev
FN:77,_ZN31StateVector_GetInclination_TestD0Ev
FN:77,_ZN31StateVector_GetInclination_TestC2Ev
FN:77,_ZN31StateVector_GetInclination_Test8TestBodyEv
FN:77,_ZN31StateVector_GetInclination_TestD2Ev
FN:87,_ZN37StateVector_GetPeriapsisArgument_Test8TestBodyEv
FN:87,_ZN37StateVector_GetPeriapsisArgument_TestD2Ev
FN:87,_ZN37StateVector_GetPeriapsisArgument_TestD0Ev
FN:87,_ZN37StateVector_GetPeriapsisArgument_TestC2Ev
FN:97,_ZN23StateVector_GetRAN_TestC2Ev
FN:97,_ZN23StateVector_GetRAN_Test8TestBodyEv
FN:97,_ZN23StateVector_GetRAN_TestD0Ev
FN:97,_ZN23StateVector_GetRAN_TestD2Ev
FN:107,_ZN31StateVector_GetMeanAnomaly_TestC2Ev
FN:107,_ZN31StateVector_GetMeanAnomaly_TestD0Ev
FN:107,_ZN31StateVector_GetMeanAnomaly_Test8TestBodyEv
FN:107,_ZN31StateVector_GetMeanAnomaly_TestD2Ev
FN:117,_ZN31StateVector_GetTrueAnomaly_Test8TestBodyEv
FN:117,_ZN31StateVector_GetTrueAnomaly_TestC2Ev
FN:117,_ZN31StateVector_GetTrueAnomaly_TestD2Ev
FN:117,_ZN31StateVector_GetTrueAnomaly_TestD0Ev
FN:127,_ZN26StateVector_GetPeriod_TestD0Ev
FN:127,_ZN26StateVector_GetPeriod_TestC2Ev
FN:127,_ZN26StateVector_GetPeriod_Test8TestBodyEv
FN:127,_ZN26StateVector_GetPeriod_TestD2Ev
FN:137,_ZN30StateVector_GetMeanMotion_TestD2Ev
FN:137,_ZN30StateVector_GetMeanMotion_Test8TestBodyEv
FN:137,_ZN30StateVector_GetMeanMotion_TestD0Ev
FN:137,_ZN30StateVector_GetMeanMotion_TestC2Ev
FN:147,_ZN29StateVector_IsElliptical_Test8TestBodyEv
FN:147,_ZN29StateVector_IsElliptical_TestC2Ev
FN:147,_ZN29StateVector_IsElliptical_TestD2Ev
FN:147,_ZN29StateVector_IsElliptical_TestD0Ev
FN:157,_ZN29StateVector_IsHyperbolic_TestC2Ev
FN:157,_ZN29StateVector_IsHyperbolic_Test8TestBodyEv
FN:157,_ZN29StateVector_IsHyperbolic_TestD2Ev
FN:157,_ZN29StateVector_IsHyperbolic_TestD0Ev
FN:167,_ZN28StateVector_IsParabolic_TestD2Ev
FN:167,_ZN28StateVector_IsParabolic_Test8TestBodyEv
FN:167,_ZN28StateVector_IsParabolic_TestC2Ev
FN:167,_ZN28StateVector_IsParabolic_TestD0Ev
FN:179,_ZN54StateVector_CheckUpdateCenterOfMotionToParentBody_TestD2Ev
FN:179,_ZN54StateVector_CheckUpdateCenterOfMotionToParentBody_TestC2Ev
FN:179,_ZN54StateVector_CheckUpdateCenterOfMotionToParentBody_TestD0Ev
FN:179,_ZN54StateVector_CheckUpdateCenterOfMotionToParentBody_Test8TestBodyEv
FN:201,_ZN57StateVector_CheckUpdateCenterOfMotionToSatelliteBody_TestD0Ev
FN:201,_ZN57StateVector_CheckUpdateCenterOfMotionToSatelliteBody_Test8TestBodyEv
FN:201,_ZN57StateVector_CheckUpdateCenterOfMotionToSatelliteBody_TestD2Ev
FN:201,_ZN57StateVector_CheckUpdateCenterOfMotionToSatelliteBody_TestC2Ev
FN:223,_ZN28StateVector_Assignement_TestD2Ev
FN:223,_ZN28StateVector_Assignement_Test8TestBodyEv
FN:223,_ZN28StateVector_Assignement_TestC2Ev
FN:223,_ZN28StateVector_Assignement_TestD0Ev
FN:242,_ZN22StateVector_Frame_TestD0Ev
FN:242,_ZN22StateVector_Frame_TestC2Ev
FN:242,_ZN22StateVector_Frame_Test8TestBodyEv
FN:242,_ZN22StateVector_Frame_TestD2Ev
FN:252,_ZN35StateVector_EccentricityVector_TestC2Ev
FN:252,_ZN35StateVector_EccentricityVector_TestD0Ev
FN:252,_ZN35StateVector_EccentricityVector_TestD2Ev
FN:252,_ZN35StateVector_EccentricityVector_Test8TestBodyEv
FN:265,_ZN30StateVector_PerigeeVector_TestD2Ev
FN:265,_ZN30StateVector_PerigeeVector_TestC2Ev
FN:265,_ZN30StateVector_PerigeeVector_Test8TestBodyEv
FN:265,_ZN30StateVector_PerigeeVector_TestD0Ev
FN:278,_ZN29StateVector_ApogeeVector_TestC2Ev
FN:278,_ZN29StateVector_ApogeeVector_TestD0Ev
FN:278,_ZN29StateVector_ApogeeVector_TestD2Ev
FN:278,_ZN29StateVector_ApogeeVector_Test8TestBodyEv
FN:291,_ZN32StateVector_FromTrueAnomaly_TestD0Ev
FN:291,_ZN32StateVector_FromTrueAnomaly_TestD2Ev
FN:291,_ZN32StateVector_FromTrueAnomaly_Test8TestBodyEv
FN:291,_ZN32StateVector_FromTrueAnomaly_TestC2Ev
FN:308,_ZN24StateVector_ToFrame_TestD2Ev
FN:308,_ZN24StateVector_ToFrame_TestD0Ev
FN:308,_ZN24StateVector_ToFrame_Test8TestBodyEv
FN:308,_ZN24StateVector_ToFrame_TestC2Ev
FN:323,_ZN39StateVector_GetAscendingNodeVector_TestD2Ev
FN:323,_ZN39StateVector_GetAscendingNodeVector_TestC2Ev
FN:323,_ZN39StateVector_GetAscendingNodeVector_Test8TestBodyEv
FN:323,_ZN39StateVector_GetAscendingNodeVector_TestD0Ev
FNDA:1,_ZN28StateVector_IsParabolic_TestD0Ev
FNDA:1,_ZN43StateVector_GetSpecificAngularMomentum_TestD0Ev
FNDA:1,_ZN28StateVector_Assignement_TestD0Ev
FNDA:1,_ZN30StateVector_PerigeeVector_TestD0Ev
FNDA:1,_ZN41StateVector_GetSpecificOrbitalEnergy_TestD2Ev
FNDA:1,_ZN43StateVector_GetSpecificAngularMomentum_TestD2Ev
FNDA:1,_ZN35StateVector_EccentricityVector_Test8TestBodyEv
FNDA:1,_ZN22StateVector_Frame_Test8TestBodyEv
FNDA:1,_ZN57StateVector_CheckUpdateCenterOfMotionToSatelliteBody_TestC2Ev
FNDA:1,_ZN24StateVector_ToFrame_TestC2Ev
FNDA:1,_ZN22StateVector_Frame_TestD2Ev
FNDA:1,_ZN29StateVector_ApogeeVector_Test8TestBodyEv
FNDA:1,_ZN31StateVector_GetInclination_TestD2Ev
FNDA:1,_ZN28StateVector_IsParabolic_TestC2Ev
FNDA:1,_ZN22StateVector_Frame_TestC2Ev
FNDA:1,_ZN31StateVector_GetTrueAnomaly_TestD0Ev
FNDA:1,_ZN29StateVector_IsElliptical_TestD0Ev
FNDA:1,_ZN30StateVector_GetMeanMotion_TestC2Ev
FNDA:1,_ZN31StateVector_GetMeanAnomaly_Test8TestBodyEv
FNDA:1,_ZN29StateVector_IsHyperbolic_TestD0Ev
FNDA:1,_ZN31StateVector_GetMeanAnomaly_TestD2Ev
FNDA:1,_ZN32StateVector_GetEccentricity_Test8TestBodyEv
FNDA:1,_ZN32StateVector_GetEccentricity_TestD2Ev
FNDA:1,_ZN57StateVector_CheckUpdateCenterOfMotionToSatelliteBody_TestD2Ev
FNDA:1,_ZN31StateVector_Initialization_TestD0Ev
FNDA:1,_ZN29StateVector_IsElliptical_TestD2Ev
FNDA:1,_ZN35StateVector_EccentricityVector_TestD2Ev
FNDA:1,_ZN37StateVector_GetPeriapsisArgument_TestC2Ev
FNDA:1,_ZN23StateVector_GetRAN_TestD2Ev
FNDA:1,_ZN41StateVector_GetSpecificOrbitalEnergy_Test8TestBodyEv
FNDA:1,_ZN29StateVector_IsElliptical_TestC2Ev
FNDA:1,_ZN37StateVector_GetPeriapsisArgument_TestD0Ev
FNDA:1,_ZN54StateVector_CheckUpdateCenterOfMotionToParentBody_Test8TestBodyEv
FNDA:1,_ZN37StateVector_GetPeriapsisArgument_TestD2Ev
FNDA:1,_ZN29StateVector_IsHyperbolic_TestD2Ev
FNDA:1,_ZN30StateVector_PerigeeVector_TestC2Ev
FNDA:1,_ZN26StateVector_GetPeriod_TestD2Ev
FNDA:1,_ZN30StateVector_PerigeeVector_Test8TestBodyEv
FNDA:1,_ZN31StateVector_GetTrueAnomaly_TestD2Ev
FNDA:1,_ZN32StateVector_GetEccentricity_TestC2Ev
FNDA:1,_ZN31StateVector_Initialization_TestD2Ev
FNDA:1,_ZN54StateVector_CheckUpdateCenterOfMotionToParentBody_TestD0Ev
FNDA:1,_ZN29StateVector_IsHyperbolic_Test8TestBodyEv
FNDA:1,_ZN33StateVector_GetSemiMajorAxis_TestC2Ev
FNDA:1,_ZN32StateVector_GetEccentricity_TestD0Ev
FNDA:1,_ZN31StateVector_GetInclination_Test8TestBodyEv
FNDA:1,_ZN54StateVector_CheckUpdateCenterOfMotionToParentBody_TestC2Ev
FNDA:1,_ZN54StateVector_CheckUpdateCenterOfMotionToParentBody_TestD2Ev
FNDA:1,_ZN29StateVector_IsHyperbolic_TestC2Ev
FNDA:1,_ZN26StateVector_GetPeriod_Test8TestBodyEv
FNDA:1,_ZN33StateVector_GetSemiMajorAxis_Test8TestBodyEv
FNDA:1,_ZN23StateVector_GetRAN_TestD0Ev
FNDA:1,_ZN57StateVector_CheckUpdateCenterOfMotionToSatelliteBody_Test8TestBodyEv
FNDA:1,_ZN32StateVector_FromTrueAnomaly_Test8TestBodyEv
FNDA:1,_ZN29StateVector_IsElliptical_Test8TestBodyEv
FNDA:1,_ZN32StateVector_FromTrueAnomaly_TestC2Ev
FNDA:1,_ZN31StateVector_GetInclination_TestC2Ev
FNDA:1,_ZN39StateVector_GetAscendingNodeVector_TestD0Ev
FNDA:1,_ZN35StateVector_EccentricityVector_TestC2Ev
FNDA:1,_ZN29StateVector_ApogeeVector_TestD2Ev
FNDA:1,_ZN35StateVector_EccentricityVector_TestD0Ev
FNDA:1,_ZN32StateVector_FromTrueAnomaly_TestD2Ev
FNDA:1,_ZN23StateVector_GetRAN_Test8TestBodyEv
FNDA:1,_ZN23StateVector_GetRAN_TestC2Ev
FNDA:1,_ZN29StateVector_ApogeeVector_TestD0Ev
FNDA:1,_ZN30StateVector_PerigeeVector_TestD2Ev
FNDA:1,_ZN26StateVector_GetPeriod_TestC2Ev
FNDA:1,_ZN30StateVector_GetMeanMotion_TestD0Ev
FNDA:1,_ZN39StateVector_GetAscendingNodeVector_Test8TestBodyEv
FNDA:1,_ZN29StateVector_ApogeeVector_TestC2Ev
FNDA:1,_ZN26StateVector_GetPeriod_TestD0Ev
FNDA:1,_ZN32StateVector_FromTrueAnomaly_TestD0Ev
FNDA:1,_ZN22StateVector_Frame_TestD0Ev
FNDA:1,_ZN24StateVector_ToFrame_Test8TestBodyEv
FNDA:1,_ZN31StateVector_Initialization_Test8TestBodyEv
FNDA:1,_ZN28StateVector_IsParabolic_Test8TestBodyEv
FNDA:1,_ZN31StateVector_GetTrueAnomaly_TestC2Ev
FNDA:1,_ZN28StateVector_Assignement_TestC2Ev
FNDA:1,_ZN43StateVector_GetSpecificAngularMomentum_Test8TestBodyEv
FNDA:1,_ZN30StateVector_GetMeanMotion_Test8TestBodyEv
FNDA:1,_ZN39StateVector_GetAscendingNodeVector_TestC2Ev
FNDA:1,_ZN31StateVector_Initialization_TestC2Ev
FNDA:1,_ZN31StateVector_GetMeanAnomaly_TestD0Ev
FNDA:1,_ZN31StateVector_GetTrueAnomaly_Test8TestBodyEv
FNDA:1,_ZN41StateVector_GetSpecificOrbitalEnergy_TestC2Ev
FNDA:1,_ZN37StateVector_GetPeriapsisArgument_Test8TestBodyEv
FNDA:1,_ZN30StateVector_GetMeanMotion_TestD2Ev
FNDA:1,_ZN24StateVector_ToFrame_TestD0Ev
FNDA:1,_ZN24StateVector_ToFrame_TestD2Ev
FNDA:1,_ZN39StateVector_GetAscendingNodeVector_TestD2Ev
FNDA:1,_ZN28StateVector_Assignement_Test8TestBodyEv
FNDA:1,_ZN33StateVector_GetSemiMajorAxis_TestD0Ev
FNDA:1,_ZN31StateVector_GetMeanAnomaly_TestC2Ev
FNDA:1,_ZN28StateVector_IsParabolic_TestD2Ev
FNDA:1,_ZN57StateVector_CheckUpdateCenterOfMotionToSatelliteBody_TestD0Ev
FNDA:1,_ZN28StateVector_Assignement_TestD2Ev
FNDA:1,_ZN33StateVector_GetSemiMajorAxis_TestD2Ev
FNDA:1,_ZN43StateVector_GetSpecificAngularMomentum_TestC2Ev
FNDA:1,_ZN41StateVector_GetSpecificOrbitalEnergy_TestD0Ev
FNDA:1,_ZN31StateVector_GetInclination_TestD0Ev
FNF:100
FNH:100
DA:13,4
DA:15,1
DA:16,1
DA:17,1
DA:18,1
DA:19,1
DA:21,1
DA:22,1
DA:23,1
DA:25,1
DA:26,1
DA:28,1
DA:29,1
DA:31,1
DA:32,1
DA:33,1
DA:35,1
DA:36,1
DA:37,1
DA:39,1
DA:40,1
DA:43,4
DA:45,1
DA:46,1
DA:47,1
DA:50,4
DA:52,1
DA:53,1
DA:54,1
DA:57,4
DA:60,1
DA:61,1
DA:64,1
DA:67,4
DA:70,1
DA:71,1
DA:74,1
DA:77,4
DA:80,1
DA:81,1
DA:84,1
DA:87,4
DA:90,1
DA:91,1
DA:94,1
DA:97,4
DA:100,1
DA:101,1
DA:104,1
DA:107,4
DA:110,1
DA:111,1
DA:114,1
DA:117,4
DA:120,1
DA:121,1
DA:124,1
DA:127,4
DA:130,1
DA:131,1
DA:134,1
DA:137,4
DA:140,1
DA:141,1
DA:144,1
DA:147,4
DA:150,1
DA:151,1
DA:154,1
DA:157,4
DA:160,1
DA:161,1
DA:164,1
DA:167,4
DA:170,1
DA:171,1
DA:173,1
DA:176,1
DA:179,4
DA:182,1
DA:183,1
DA:184,1
DA:187,1
DA:188,1
DA:191,1
DA:192,1
DA:193,1
DA:194,1
DA:196,1
DA:197,1
DA:198,1
DA:201,4
DA:204,1
DA:205,1
DA:206,1
DA:209,1
DA:210,1
DA:213,1
DA:214,1
DA:215,1
DA:216,1
DA:218,1
DA:219,1
DA:220,1
DA:223,4
DA:226,1
DA:227,1
DA:230,1
DA:231,1
DA:232,1
DA:233,1
DA:234,1
DA:235,1
DA:236,1
DA:237,1
DA:238,1
DA:239,2
DA:242,4
DA:244,1
DA:245,1
DA:248,1
DA:249,1
DA:252,4
DA:254,1
DA:255,1
DA:257,1
DA:259,1
DA:260,1
DA:261,1
DA:262,1
DA:265,4
DA:267,1
DA:268,1
DA:270,1
DA:272,1
DA:273,1
DA:274,1
DA:275,1
DA:278,4
DA:280,1
DA:281,1
DA:283,1
DA:285,1
DA:286,1
DA:287,1
DA:288,1
DA:291,4
DA:293,1
DA:294,1
DA:296,1
DA:298,1
DA:300,1
DA:302,1
DA:304,1
DA:305,1
DA:308,4
DA:310,1
DA:311,1
DA:313,1
DA:315,1
DA:316,1
DA:317,1
DA:318,1
DA:319,1
DA:320,1
DA:323,4
DA:325,1
DA:326,1
DA:328,1
DA:330,1
DA:331,1
DA:332,1
LF:172
LH:172
end_of_record
TN:
SF:/home/usr/Sources/SDK/IO.SDK.Tests/StringHelpersTests.cpp
FN:5,_ZN30StringHelpers_YoUppercase_Test8TestBodyEv
FN:5,_ZN30StringHelpers_YoUppercase_TestD0Ev
FN:5,_ZN30StringHelpers_YoUppercase_TestC2Ev
FN:5,_ZN30StringHelpers_YoUppercase_TestD2Ev
FNDA:1,_ZN30StringHelpers_YoUppercase_TestC2Ev
FNDA:1,_ZN30StringHelpers_YoUppercase_TestD2Ev
FNDA:1,_ZN30StringHelpers_YoUppercase_Test8TestBodyEv
FNDA:1,_ZN30StringHelpers_YoUppercase_TestD0Ev
FNF:4
FNH:4
DA:5,4
DA:7,1
DA:8,1
DA:9,1
DA:10,1
LF:5
LH:5
end_of_record
TN:
SF:/home/usr/Sources/SDK/IO.SDK.Tests/SurfaceCoordinatesTests.cpp
FN:7,_ZN38SurfaceCoordinates_Initialization_TestD0Ev
FN:7,_ZN38SurfaceCoordinates_Initialization_TestD2Ev
FN:7,_ZN38SurfaceCoordinates_Initialization_TestC2Ev
FN:7,_ZN38SurfaceCoordinates_Initialization_Test8TestBodyEv
FN:14,_ZN27SurfaceCoordinates_Add_TestC2Ev
FN:14,_ZN27SurfaceCoordinates_Add_TestD2Ev
FN:14,_ZN27SurfaceCoordinates_Add_TestD0Ev
FN:14,_ZN27SurfaceCoordinates_Add_Test8TestBodyEv
FN:34,_ZN28SurfaceCoordinates_Copy_TestD2Ev
FN:34,_ZN28SurfaceCoordinates_Copy_TestD0Ev
FN:34,_ZN28SurfaceCoordinates_Copy_Test8TestBodyEv
FN:34,_ZN28SurfaceCoordinates_Copy_TestC2Ev
FNDA:1,_ZN27SurfaceCoordinates_Add_TestD0Ev
FNDA:1,_ZN38SurfaceCoordinates_Initialization_Test8TestBodyEv
FNDA:1,_ZN28SurfaceCoordinates_Copy_TestC2Ev
FNDA:1,_ZN27SurfaceCoordinates_Add_Test8TestBodyEv
FNDA:1,_ZN28SurfaceCoordinates_Copy_Test8TestBodyEv
FNDA:1,_ZN38SurfaceCoordinates_Initialization_TestD2Ev
FNDA:1,_ZN38SurfaceCoordinates_Initialization_TestD0Ev
FNDA:1,_ZN27SurfaceCoordinates_Add_TestC2Ev
FNDA:1,_ZN27SurfaceCoordinates_Add_TestD2Ev
FNDA:1,_ZN28SurfaceCoordinates_Copy_TestD0Ev
FNDA:1,_ZN28SurfaceCoordinates_Copy_TestD2Ev
FNDA:1,_ZN38SurfaceCoordinates_Initialization_TestC2Ev
FNF:12
FNH:12
DA:7,4
DA:9,1
DA:10,1
DA:11,1
DA:14,4
DA:16,1
DA:17,1
DA:19,1
DA:21,1
DA:22,1
DA:23,1
DA:25,1
DA:27,1
DA:29,1
DA:30,1
DA:31,1
DA:34,4
DA:36,1
DA:39,1
DA:40,1
DA:42,1
DA:44,1
DA:46,1
DA:47,1
DA:48,1
DA:50,1
DA:52,1
DA:54,1
DA:55,1
DA:56,1
DA:58,1
DA:59,1
DA:61,1
DA:64,1
DA:65,1
DA:68,1
DA:69,1
DA:71,1
DA:72,1
DA:76,1
DA:77,1
DA:78,1
DA:79,1
DA:80,1
DA:81,1
DA:82,1
DA:83,1
LF:47
LH:47
end_of_record
TN:
SF:/home/usr/Sources/SDK/IO.SDK.Tests/SurfaceInterceptPointTests.cpp
FN:7,_ZN41SurfaceInterceptpoint_Initialization_TestD2Ev
FN:7,_ZN41SurfaceInterceptpoint_Initialization_Test8TestBodyEv
FN:7,_ZN41SurfaceInterceptpoint_Initialization_TestD0Ev
FN:7,_ZN41SurfaceInterceptpoint_Initialization_TestC2Ev
FN:24,_ZN31SurfaceInterceptpoint_Copy_TestD2Ev
FN:24,_ZN31SurfaceInterceptpoint_Copy_TestC2Ev
FN:24,_ZN31SurfaceInterceptpoint_Copy_Test8TestBodyEv
FN:24,_ZN31SurfaceInterceptpoint_Copy_TestD0Ev
FNDA:1,_ZN31SurfaceInterceptpoint_Copy_Test8TestBodyEv
FNDA:1,_ZN31SurfaceInterceptpoint_Copy_TestC2Ev
FNDA:1,_ZN41SurfaceInterceptpoint_Initialization_TestD0Ev
FNDA:1,_ZN31SurfaceInterceptpoint_Copy_TestD0Ev
FNDA:1,_ZN41SurfaceInterceptpoint_Initialization_TestC2Ev
FNDA:1,_ZN41SurfaceInterceptpoint_Initialization_TestD2Ev
FNDA:1,_ZN41SurfaceInterceptpoint_Initialization_Test8TestBodyEv
FNDA:1,_ZN31SurfaceInterceptpoint_Copy_TestD2Ev
FNF:8
FNH:8
DA:7,4
DA:9,1
DA:10,1
DA:11,1
DA:12,1
DA:13,1
DA:14,1
DA:15,1
DA:17,1
DA:18,1
DA:19,1
DA:21,1
DA:24,4
DA:26,1
DA:27,1
DA:28,1
DA:29,1
DA:30,1
DA:32,1
DA:33,1
DA:34,1
DA:36,1
DA:37,1
DA:38,1
DA:40,1
DA:42,1
DA:43,1
LF:27
LH:27
end_of_record
TN:
SF:/home/usr/Sources/SDK/IO.SDK.Tests/TDBTests.cpp
FN:10,_ZN17TDB_ToString_Test8TestBodyEv
FN:10,_ZN17TDB_ToString_TestC2Ev
FN:10,_ZN17TDB_ToString_TestD0Ev
FN:10,_ZN17TDB_ToString_TestD2Ev
FN:17,_ZN15TDB_GetTDB_TestD2Ev
FN:17,_ZN15TDB_GetTDB_Test8TestBodyEv
FN:17,_ZN15TDB_GetTDB_TestD0Ev
FN:17,_ZN15TDB_GetTDB_TestC2Ev
FN:23,_ZN21TDB_SubstractTDB_TestC2Ev
FN:23,_ZN21TDB_SubstractTDB_Test8TestBodyEv
FN:23,_ZN21TDB_SubstractTDB_TestD2Ev
FN:23,_ZN21TDB_SubstractTDB_TestD0Ev
FN:32,_ZN12TDB_Add_TestD2Ev
FN:32,_ZN12TDB_Add_TestC2Ev
FN:32,_ZN12TDB_Add_TestD0Ev
FN:32,_ZN12TDB_Add_Test8TestBodyEv
FN:39,_ZN26TDB_SubstractTimeSpan_Test8TestBodyEv
FN:39,_ZN26TDB_SubstractTimeSpan_TestC2Ev
FN:39,_ZN26TDB_SubstractTimeSpan_TestD2Ev
FN:39,_ZN26TDB_SubstractTimeSpan_TestD0Ev
FN:46,_ZN14TDB_Equal_TestD0Ev
FN:46,_ZN14TDB_Equal_Test8TestBodyEv
FN:46,_ZN14TDB_Equal_TestC2Ev
FN:46,_ZN14TDB_Equal_TestD2Ev
FN:53,_ZN17TDB_NotEqual_TestC2Ev
FN:53,_ZN17TDB_NotEqual_Test8TestBodyEv
FN:53,_ZN17TDB_NotEqual_TestD0Ev
FN:53,_ZN17TDB_NotEqual_TestD2Ev
FN:60,_ZN20TDB_GreaterThan_TestC2Ev
FN:60,_ZN20TDB_GreaterThan_Test8TestBodyEv
FN:60,_ZN20TDB_GreaterThan_TestD2Ev
FN:60,_ZN20TDB_GreaterThan_TestD0Ev
FN:67,_ZN18TDB_LowerThan_Test8TestBodyEv
FN:67,_ZN18TDB_LowerThan_TestC2Ev
FN:67,_ZN18TDB_LowerThan_TestD0Ev
FN:67,_ZN18TDB_LowerThan_TestD2Ev
FN:74,_ZN27TDB_GreaterThanOrEqual_TestD0Ev
FN:74,_ZN27TDB_GreaterThanOrEqual_TestC2Ev
FN:74,_ZN27TDB_GreaterThanOrEqual_TestD2Ev
FN:74,_ZN27TDB_GreaterThanOrEqual_Test8TestBodyEv
FN:85,_ZN25TDB_LowerThanOrEqual_Test8TestBodyEv
FN:85,_ZN25TDB_LowerThanOrEqual_TestC2Ev
FN:85,_ZN25TDB_LowerThanOrEqual_TestD0Ev
FN:85,_ZN25TDB_LowerThanOrEqual_TestD2Ev
FN:96,_ZN17TDB_ToJulian_Test8TestBodyEv
FN:96,_ZN17TDB_ToJulian_TestC2Ev
FN:96,_ZN17TDB_ToJulian_TestD0Ev
FN:96,_ZN17TDB_ToJulian_TestD2Ev
FN:102,_ZN14TDB_ToUTC_TestD0Ev
FN:102,_ZN14TDB_ToUTC_Test8TestBodyEv
FN:102,_ZN14TDB_ToUTC_TestC2Ev
FN:102,_ZN14TDB_ToUTC_TestD2Ev
FNDA:1,_ZN14TDB_ToUTC_TestD2Ev
FNDA:1,_ZN20TDB_GreaterThan_TestD2Ev
FNDA:1,_ZN25TDB_LowerThanOrEqual_TestD2Ev
FNDA:1,_ZN15TDB_GetTDB_TestC2Ev
FNDA:1,_ZN17TDB_ToString_TestD2Ev
FNDA:1,_ZN27TDB_GreaterThanOrEqual_Test8TestBodyEv
FNDA:1,_ZN20TDB_GreaterThan_TestD0Ev
FNDA:1,_ZN14TDB_Equal_TestD2Ev
FNDA:1,_ZN17TDB_NotEqual_TestD2Ev
FNDA:1,_ZN17TDB_ToJulian_TestD2Ev
FNDA:1,_ZN21TDB_SubstractTDB_TestD0Ev
FNDA:1,_ZN12TDB_Add_Test8TestBodyEv
FNDA:1,_ZN26TDB_SubstractTimeSpan_TestD2Ev
FNDA:1,_ZN17TDB_ToString_TestD0Ev
FNDA:1,_ZN14TDB_ToUTC_TestC2Ev
FNDA:1,_ZN26TDB_SubstractTimeSpan_TestD0Ev
FNDA:1,_ZN21TDB_SubstractTDB_TestD2Ev
FNDA:1,_ZN17TDB_NotEqual_TestD0Ev
FNDA:1,_ZN18TDB_LowerThan_TestD0Ev
FNDA:1,_ZN17TDB_NotEqual_Test8TestBodyEv
FNDA:1,_ZN12TDB_Add_TestD0Ev
FNDA:1,_ZN20TDB_GreaterThan_Test8TestBodyEv
FNDA:1,_ZN15TDB_GetTDB_Test8TestBodyEv
FNDA:1,_ZN14TDB_Equal_TestC2Ev
FNDA:1,_ZN15TDB_GetTDB_TestD0Ev
FNDA:1,_ZN27TDB_GreaterThanOrEqual_TestD2Ev
FNDA:1,_ZN27TDB_GreaterThanOrEqual_TestC2Ev
FNDA:1,_ZN18TDB_LowerThan_TestD2Ev
FNDA:1,_ZN17TDB_ToString_TestC2Ev
FNDA:1,_ZN27TDB_GreaterThanOrEqual_TestD0Ev
FNDA:1,_ZN17TDB_ToJulian_TestD0Ev
FNDA:1,_ZN12TDB_Add_TestC2Ev
FNDA:1,_ZN18TDB_LowerThan_TestC2Ev
FNDA:1,_ZN17TDB_ToJulian_TestC2Ev
FNDA:1,_ZN15TDB_GetTDB_TestD2Ev
FNDA:1,_ZN25TDB_LowerThanOrEqual_TestC2Ev
FNDA:1,_ZN20TDB_GreaterThan_TestC2Ev
FNDA:1,_ZN18TDB_LowerThan_Test8TestBodyEv
FNDA:1,_ZN14TDB_Equal_TestD0Ev
FNDA:1,_ZN12TDB_Add_TestD2Ev
FNDA:1,_ZN25TDB_LowerThanOrEqual_Test8TestBodyEv
FNDA:1,_ZN14TDB_Equal_Test8TestBodyEv
FNDA:1,_ZN21TDB_SubstractTDB_Test8TestBodyEv
FNDA:1,_ZN14TDB_ToUTC_Test8TestBodyEv
FNDA:1,_ZN17TDB_NotEqual_TestC2Ev
FNDA:1,_ZN17TDB_ToString_Test8TestBodyEv
FNDA:1,_ZN25TDB_LowerThanOrEqual_TestD0Ev
FNDA:1,_ZN26TDB_SubstractTimeSpan_Test8TestBodyEv
FNDA:1,_ZN26TDB_SubstractTimeSpan_TestC2Ev
FNDA:1,_ZN21TDB_SubstractTDB_TestC2Ev
FNDA:1,_ZN17TDB_ToJulian_Test8TestBodyEv
FNDA:1,_ZN14TDB_ToUTC_TestD0Ev
FNF:52
FNH:52
DA:10,4
DA:12,2
DA:13,1
DA:14,1
DA:17,4
DA:19,2
DA:20,1
DA:23,4
DA:25,2
DA:26,2
DA:27,1
DA:28,1
DA:32,4
DA:34,2
DA:35,1
DA:36,2
DA:39,4
DA:41,2
DA:42,1
DA:43,1
DA:46,4
DA:48,2
DA:49,2
DA:50,1
DA:53,4
DA:55,2
DA:56,2
DA:57,1
DA:60,4
DA:62,2
DA:63,2
DA:64,1
DA:67,4
DA:69,2
DA:70,2
DA:71,1
DA:74,4
DA:76,2
DA:77,2
DA:78,1
DA:80,2
DA:81,2
DA:82,1
DA:85,4
DA:87,2
DA:88,2
DA:89,1
DA:91,2
DA:92,2
DA:93,1
DA:96,4
DA:98,2
DA:99,1
DA:102,4
DA:104,2
DA:105,2
LF:56
LH:56
end_of_record
TN:
SF:/home/usr/Sources/SDK/IO.SDK.Tests/TLEIntegratorTests.cpp
FN:11,_ZN28TLEIntegrator_Integrate_TestD2Ev
FN:11,_ZN28TLEIntegrator_Integrate_TestC2Ev
FN:11,_ZN28TLEIntegrator_Integrate_TestD0Ev
FN:11,_ZN28TLEIntegrator_Integrate_Test8TestBodyEv
FNDA:1,_ZN28TLEIntegrator_Integrate_TestC2Ev
FNDA:1,_ZN28TLEIntegrator_Integrate_Test8TestBodyEv
FNDA:1,_ZN28TLEIntegrator_Integrate_TestD0Ev
FNDA:1,_ZN28TLEIntegrator_Integrate_TestD2Ev
FNF:4
FNH:4
DA:11,4
DA:14,1
DA:16,7
DA:17,1
DA:18,1
DA:19,1
DA:20,1
DA:21,3
DA:22,1
DA:25,1
DA:30,1
DA:38,1
DA:39,1
DA:40,1
DA:41,1
DA:42,1
DA:43,1
DA:45,1
DA:46,2
LF:19
LH:19
end_of_record
TN:
SF:/home/usr/Sources/SDK/IO.SDK.Tests/TLETests.cpp
FN:11,_ZN23TLE_Initialization_Test8TestBodyEv
FN:11,_ZN23TLE_Initialization_TestD0Ev
FN:11,_ZN23TLE_Initialization_TestC2Ev
FN:11,_ZN23TLE_Initialization_TestD2Ev
FN:18,_ZN25TLE_GetSatelliteName_TestD2Ev
FN:18,_ZN25TLE_GetSatelliteName_TestC2Ev
FN:18,_ZN25TLE_GetSatelliteName_TestD0Ev
FN:18,_ZN25TLE_GetSatelliteName_Test8TestBodyEv
FN:27,_ZN31TLE_GetBalisticCoefficient_TestC2Ev
FN:27,_ZN31TLE_GetBalisticCoefficient_TestD0Ev
FN:27,_ZN31TLE_GetBalisticCoefficient_TestD2Ev
FN:27,_ZN31TLE_GetBalisticCoefficient_Test8TestBodyEv
FN:36,_ZN40TLE_GetSecondDerivativeOfMeanMotion_TestC2Ev
FN:36,_ZN40TLE_GetSecondDerivativeOfMeanMotion_Test8TestBodyEv
FN:36,_ZN40TLE_GetSecondDerivativeOfMeanMotion_TestD2Ev
FN:36,_ZN40TLE_GetSecondDerivativeOfMeanMotion_TestD0Ev
FN:45,_ZN20TLE_GetDragTerm_TestD2Ev
FN:45,_ZN20TLE_GetDragTerm_TestD0Ev
FN:45,_ZN20TLE_GetDragTerm_Test8TestBodyEv
FN:45,_ZN20TLE_GetDragTerm_TestC2Ev
FN:54,_ZN18TLE_GetPeriod_TestD2Ev
FN:54,_ZN18TLE_GetPeriod_Test8TestBodyEv
FN:54,_ZN18TLE_GetPeriod_TestC2Ev
FN:54,_ZN18TLE_GetPeriod_TestD0Ev
FN:65,_ZN26TLE_GetCenterOfMotion_TestC2Ev
FN:65,_ZN26TLE_GetCenterOfMotion_TestD0Ev
FN:65,_ZN26TLE_GetCenterOfMotion_Test8TestBodyEv
FN:65,_ZN26TLE_GetCenterOfMotion_TestD2Ev
FN:76,_ZN24TLE_GetEccentricity_Test8TestBodyEv
FN:76,_ZN24TLE_GetEccentricity_TestD2Ev
FN:76,_ZN24TLE_GetEccentricity_TestC2Ev
FN:76,_ZN24TLE_GetEccentricity_TestD0Ev
FN:87,_ZN17TLE_GetEpoch_Test8TestBodyEv
FN:87,_ZN17TLE_GetEpoch_TestD2Ev
FN:87,_ZN17TLE_GetEpoch_TestD0Ev
FN:87,_ZN17TLE_GetEpoch_TestC2Ev
FN:98,_ZN23TLE_GetInclination_TestD0Ev
FN:98,_ZN23TLE_GetInclination_TestD2Ev
FN:98,_ZN23TLE_GetInclination_Test8TestBodyEv
FN:98,_ZN23TLE_GetInclination_TestC2Ev
FN:109,_ZN23TLE_GetMeanAnomaly_TestD2Ev
FN:109,_ZN23TLE_GetMeanAnomaly_TestC2Ev
FN:109,_ZN23TLE_GetMeanAnomaly_TestD0Ev
FN:109,_ZN23TLE_GetMeanAnomaly_Test8TestBodyEv
FN:120,_ZN22TLE_GetMeanMotion_TestD2Ev
FN:120,_ZN22TLE_GetMeanMotion_Test8TestBodyEv
FN:120,_ZN22TLE_GetMeanMotion_TestC2Ev
FN:120,_ZN22TLE_GetMeanMotion_TestD0Ev
FN:131,_ZN29TLE_GetPeriapsisArgument_Test8TestBodyEv
FN:131,_ZN29TLE_GetPeriapsisArgument_TestC2Ev
FN:131,_ZN29TLE_GetPeriapsisArgument_TestD0Ev
FN:131,_ZN29TLE_GetPeriapsisArgument_TestD2Ev
FN:142,_ZN39TLE_GetRightAscendingNodeLongitude_TestD2Ev
FN:142,_ZN39TLE_GetRightAscendingNodeLongitude_TestC2Ev
FN:142,_ZN39TLE_GetRightAscendingNodeLongitude_Test8TestBodyEv
FN:142,_ZN39TLE_GetRightAscendingNodeLongitude_TestD0Ev
FN:153,_ZN25TLE_GetSemiMajorAxis_TestC2Ev
FN:153,_ZN25TLE_GetSemiMajorAxis_Test8TestBodyEv
FN:153,_ZN25TLE_GetSemiMajorAxis_TestD0Ev
FN:153,_ZN25TLE_GetSemiMajorAxis_TestD2Ev
FN:164,_ZN29TLE_GetTimeToMeanAnomaly_TestD2Ev
FN:164,_ZN29TLE_GetTimeToMeanAnomaly_TestD0Ev
FN:164,_ZN29TLE_GetTimeToMeanAnomaly_TestC2Ev
FN:164,_ZN29TLE_GetTimeToMeanAnomaly_Test8TestBodyEv
FN:175,_ZN29TLE_GetTimeToTrueAnomaly_Test8TestBodyEv
FN:175,_ZN29TLE_GetTimeToTrueAnomaly_TestD2Ev
FN:175,_ZN29TLE_GetTimeToTrueAnomaly_TestD0Ev
FN:175,_ZN29TLE_GetTimeToTrueAnomaly_TestC2Ev
FN:186,_ZN23TLE_GetTrueAnomaly_TestC2Ev
FN:186,_ZN23TLE_GetTrueAnomaly_TestD2Ev
FN:186,_ZN23TLE_GetTrueAnomaly_TestD0Ev
FN:186,_ZN23TLE_GetTrueAnomaly_Test8TestBodyEv
FN:197,_ZN30TLE_GetTrueAnomalyAtEpoch_TestD0Ev
FN:197,_ZN30TLE_GetTrueAnomalyAtEpoch_TestC2Ev
FN:197,_ZN30TLE_GetTrueAnomalyAtEpoch_Test8TestBodyEv
FN:197,_ZN30TLE_GetTrueAnomalyAtEpoch_TestD2Ev
FN:208,_ZN30TLE_GetMeanAnomalyAtEpoch_TestD2Ev
FN:208,_ZN30TLE_GetMeanAnomalyAtEpoch_TestD0Ev
FN:208,_ZN30TLE_GetMeanAnomalyAtEpoch_Test8TestBodyEv
FN:208,_ZN30TLE_GetMeanAnomalyAtEpoch_TestC2Ev
FN:219,_ZN23TLE_TrajectoryType_TestD2Ev
FN:219,_ZN23TLE_TrajectoryType_Test8TestBodyEv
FN:219,_ZN23TLE_TrajectoryType_TestC2Ev
FN:219,_ZN23TLE_TrajectoryType_TestD0Ev
FN:230,_ZN30TLE_GetStateVectorAtEpoch_TestD2Ev
FN:230,_ZN30TLE_GetStateVectorAtEpoch_Test8TestBodyEv
FN:230,_ZN30TLE_GetStateVectorAtEpoch_TestD0Ev
FN:230,_ZN30TLE_GetStateVectorAtEpoch_TestC2Ev
FNDA:1,_ZN25TLE_GetSatelliteName_TestC2Ev
FNDA:1,_ZN23TLE_Initialization_Test8TestBodyEv
FNDA:1,_ZN30TLE_GetStateVectorAtEpoch_TestD0Ev
FNDA:1,_ZN23TLE_GetMeanAnomaly_TestC2Ev
FNDA:1,_ZN30TLE_GetTrueAnomalyAtEpoch_TestD0Ev
FNDA:1,_ZN23TLE_GetTrueAnomaly_TestD0Ev
FNDA:1,_ZN23TLE_GetMeanAnomaly_TestD0Ev
FNDA:1,_ZN29TLE_GetTimeToTrueAnomaly_TestD0Ev
FNDA:1,_ZN24TLE_GetEccentricity_TestD2Ev
FNDA:1,_ZN40TLE_GetSecondDerivativeOfMeanMotion_TestC2Ev
FNDA:1,_ZN24TLE_GetEccentricity_TestC2Ev
FNDA:1,_ZN24TLE_GetEccentricity_TestD0Ev
FNDA:1,_ZN22TLE_GetMeanMotion_TestD2Ev
FNDA:1,_ZN40TLE_GetSecondDerivativeOfMeanMotion_Test8TestBodyEv
FNDA:1,_ZN39TLE_GetRightAscendingNodeLongitude_TestC2Ev
FNDA:1,_ZN29TLE_GetPeriapsisArgument_TestD2Ev
FNDA:1,_ZN23TLE_TrajectoryType_Test8TestBodyEv
FNDA:1,_ZN25TLE_GetSatelliteName_TestD0Ev
FNDA:1,_ZN30TLE_GetTrueAnomalyAtEpoch_TestC2Ev
FNDA:1,_ZN26TLE_GetCenterOfMotion_TestC2Ev
FNDA:1,_ZN23TLE_Initialization_TestD0Ev
FNDA:1,_ZN23TLE_TrajectoryType_TestD2Ev
FNDA:1,_ZN18TLE_GetPeriod_TestD2Ev
FNDA:1,_ZN20TLE_GetDragTerm_TestD2Ev
FNDA:1,_ZN29TLE_GetTimeToMeanAnomaly_TestD2Ev
FNDA:1,_ZN39TLE_GetRightAscendingNodeLongitude_TestD2Ev
FNDA:1,_ZN23TLE_GetInclination_TestD0Ev
FNDA:1,_ZN29TLE_GetPeriapsisArgument_Test8TestBodyEv
FNDA:1,_ZN23TLE_GetInclination_TestD2Ev
FNDA:1,_ZN23TLE_GetTrueAnomaly_TestC2Ev
FNDA:1,_ZN20TLE_GetDragTerm_TestD0Ev
FNDA:1,_ZN30TLE_GetMeanAnomalyAtEpoch_TestD2Ev
FNDA:1,_ZN29TLE_GetPeriapsisArgument_TestC2Ev
FNDA:1,_ZN17TLE_GetEpoch_Test8TestBodyEv
FNDA:1,_ZN25TLE_GetSatelliteName_TestD2Ev
FNDA:1,_ZN29TLE_GetTimeToTrueAnomaly_Test8TestBodyEv
FNDA:1,_ZN29TLE_GetTimeToMeanAnomaly_TestD0Ev
FNDA:1,_ZN23TLE_GetInclination_Test8TestBodyEv
FNDA:1,_ZN31TLE_GetBalisticCoefficient_TestC2Ev
FNDA:1,_ZN23TLE_GetTrueAnomaly_TestD2Ev
FNDA:1,_ZN29TLE_GetTimeToTrueAnomaly_TestD2Ev
FNDA:1,_ZN29TLE_GetPeriapsisArgument_TestD0Ev
FNDA:1,_ZN30TLE_GetStateVectorAtEpoch_TestD2Ev
FNDA:1,_ZN25TLE_GetSemiMajorAxis_TestC2Ev
FNDA:1,_ZN18TLE_GetPeriod_Test8TestBodyEv
FNDA:1,_ZN30TLE_GetStateVectorAtEpoch_Test8TestBodyEv
FNDA:1,_ZN23TLE_GetMeanAnomaly_TestD2Ev
FNDA:1,_ZN24TLE_GetEccentricity_Test8TestBodyEv
FNDA:1,_ZN23TLE_GetInclination_TestC2Ev
FNDA:1,_ZN30TLE_GetMeanAnomalyAtEpoch_TestD0Ev
FNDA:1,_ZN17TLE_GetEpoch_TestD0Ev
FNDA:1,_ZN29TLE_GetTimeToTrueAnomaly_TestC2Ev
FNDA:1,_ZN22TLE_GetMeanMotion_TestD0Ev
FNDA:1,_ZN25TLE_GetSemiMajorAxis_TestD0Ev
FNDA:1,_ZN25TLE_GetSatelliteName_Test8TestBodyEv
FNDA:1,_ZN40TLE_GetSecondDerivativeOfMeanMotion_TestD2Ev
FNDA:1,_ZN39TLE_GetRightAscendingNodeLongitude_Test8TestBodyEv
FNDA:1,_ZN31TLE_GetBalisticCoefficient_Test8TestBodyEv
FNDA:1,_ZN23TLE_GetTrueAnomaly_Test8TestBodyEv
FNDA:1,_ZN40TLE_GetSecondDerivativeOfMeanMotion_TestD0Ev
FNDA:1,_ZN29TLE_GetTimeToMeanAnomaly_Test8TestBodyEv
FNDA:1,_ZN39TLE_GetRightAscendingNodeLongitude_TestD0Ev
FNDA:1,_ZN30TLE_GetMeanAnomalyAtEpoch_Test8TestBodyEv
FNDA:1,_ZN25TLE_GetSemiMajorAxis_TestD2Ev
FNDA:1,_ZN30TLE_GetStateVectorAtEpoch_TestC2Ev
FNDA:1,_ZN30TLE_GetMeanAnomalyAtEpoch_TestC2Ev
FNDA:1,_ZN23TLE_Initialization_TestD2Ev
FNDA:1,_ZN17TLE_GetEpoch_TestC2Ev
FNDA:1,_ZN23TLE_TrajectoryType_TestC2Ev
FNDA:1,_ZN23TLE_TrajectoryType_TestD0Ev
FNDA:1,_ZN23TLE_GetMeanAnomaly_Test8TestBodyEv
FNDA:1,_ZN22TLE_GetMeanMotion_Test8TestBodyEv
FNDA:1,_ZN26TLE_GetCenterOfMotion_TestD0Ev
FNDA:1,_ZN30TLE_GetTrueAnomalyAtEpoch_Test8TestBodyEv
FNDA:1,_ZN31TLE_GetBalisticCoefficient_TestD0Ev
FNDA:1,_ZN31TLE_GetBalisticCoefficient_TestD2Ev
FNDA:1,_ZN22TLE_GetMeanMotion_TestC2Ev
FNDA:1,_ZN18TLE_GetPeriod_TestC2Ev
FNDA:1,_ZN23TLE_Initialization_TestC2Ev
FNDA:1,_ZN17TLE_GetEpoch_TestD2Ev
FNDA:1,_ZN29TLE_GetTimeToMeanAnomaly_TestC2Ev
FNDA:1,_ZN20TLE_GetDragTerm_Test8TestBodyEv
FNDA:1,_ZN30TLE_GetTrueAnomalyAtEpoch_TestD2Ev
FNDA:1,_ZN25TLE_GetSemiMajorAxis_Test8TestBodyEv
FNDA:1,_ZN18TLE_GetPeriod_TestD0Ev
FNDA:1,_ZN26TLE_GetCenterOfMotion_Test8TestBodyEv
FNDA:1,_ZN20TLE_GetDragTerm_TestC2Ev
FNDA:1,_ZN26TLE_GetCenterOfMotion_TestD2Ev
FNF:88
FNH:88
DA:11,4
DA:13,2
DA:14,7
DA:15,1
DA:16,1
DA:18,4
DA:20,1
DA:21,7
DA:22,1
DA:24,2
DA:27,4
DA:29,1
DA:30,7
DA:31,1
DA:33,1
DA:36,4
DA:38,1
DA:39,7
DA:40,1
DA:42,1
DA:45,4
DA:47,1
DA:48,7
DA:49,1
DA:51,1
DA:54,4
DA:56,1
DA:57,7
DA:58,1
DA:60,1
DA:62,1
DA:65,4
DA:67,1
DA:68,7
DA:69,1
DA:71,1
DA:73,1
DA:76,4
DA:78,1
DA:79,7
DA:80,1
DA:82,1
DA:84,1
DA:87,4
DA:89,1
DA:90,7
DA:91,1
DA:93,1
DA:95,1
DA:98,4
DA:100,1
DA:101,7
DA:102,1
DA:104,1
DA:106,1
DA:109,4
DA:111,1
DA:112,7
DA:113,1
DA:115,1
DA:117,1
DA:120,4
DA:122,1
DA:123,7
DA:124,1
DA:126,1
DA:128,1
DA:131,4
DA:133,1
DA:134,7
DA:135,1
DA:137,1
DA:139,1
DA:142,4
DA:144,1
DA:145,7
DA:146,1
DA:148,1
DA:150,1
DA:153,4
DA:155,1
DA:156,7
DA:157,1
DA:159,1
DA:161,1
DA:164,4
DA:166,1
DA:167,7
DA:168,1
DA:170,1
DA:172,1
DA:175,4
DA:177,1
DA:178,7
DA:179,1
DA:181,1
DA:183,1
DA:186,4
DA:188,1
DA:189,7
DA:190,1
DA:192,1
DA:194,1
DA:197,4
DA:199,1
DA:200,7
DA:201,1
DA:203,1
DA:205,1
DA:208,4
DA:210,1
DA:211,7
DA:212,1
DA:214,1
DA:216,1
DA:219,4
DA:221,1
DA:222,7
DA:223,1
DA:225,1
DA:226,1
DA:227,1
DA:230,4
DA:232,1
DA:233,7
DA:234,1
DA:235,2
DA:237,1
DA:238,1
DA:239,1
DA:240,1
DA:241,1
DA:242,1
DA:243,1
DA:244,2
LF:135
LH:135
end_of_record
TN:
SF:/home/usr/Sources/SDK/IO.SDK.Tests/TestManeuver.h
FN:41,_ZN12TestManeuverC2ERKSt6vectorIN2IO3SDK4Body10Spacecraft6EngineESaIS5_EERNS2_11Propagators10PropagatorE
FN:45,_ZN12TestManeuverC2ERKSt6vectorIN2IO3SDK4Body10Spacecraft6EngineESaIS5_EERNS2_11Propagators10PropagatorERKNS2_4Time3TDBE
FN:49,_ZN12TestManeuverD2Ev
FN:53,_ZN12TestManeuver7ComputeERKN2IO3SDK17OrbitalParameters17OrbitalParametersE
FN:57,_ZN12TestManeuver18ComputeOrientationERKN2IO3SDK17OrbitalParameters17OrbitalParametersE
FN:62,_ZN12TestManeuver10CanExecuteERKN2IO3SDK17OrbitalParameters17OrbitalParametersE
FN:67,_ZN12TestManeuver10TryExecuteERKN2IO3SDK17OrbitalParameters17OrbitalParametersEd
FNDA:3,_ZN12TestManeuverC2ERKSt6vectorIN2IO3SDK4Body10Spacecraft6EngineESaIS5_EERNS2_11Propagators10PropagatorE
FNDA:1,_ZN12TestManeuver7ComputeERKN2IO3SDK17OrbitalParameters17OrbitalParametersE
FNDA:3,_ZN12TestManeuverD2Ev
FNDA:0,_ZN12TestManeuverC2ERKSt6vectorIN2IO3SDK4Body10Spacecraft6EngineESaIS5_EERNS2_11Propagators10PropagatorERKNS2_4Time3TDBE
FNDA:1,_ZN12TestManeuver10TryExecuteERKN2IO3SDK17OrbitalParameters17OrbitalParametersEd
FNDA:1,_ZN12TestManeuver10CanExecuteERKN2IO3SDK17OrbitalParameters17OrbitalParametersE
FNDA:2,_ZN12TestManeuver18ComputeOrientationERKN2IO3SDK17OrbitalParameters17OrbitalParametersE
FNF:7
FNH:6
DA:41,3
DA:43,3
DA:45,0
DA:47,0
DA:49,3
DA:51,3
DA:53,1
DA:55,1
DA:57,2
DA:59,4
DA:62,1
DA:64,1
DA:67,1
DA:69,1
DA:70,1
LF:15
LH:13
end_of_record
TN:
SF:/home/usr/Sources/SDK/IO.SDK.Tests/TimeSpanTests.cpp
FN:6,_ZN28TimeSpan_Initialization_TestD0Ev
FN:6,_ZN28TimeSpan_Initialization_TestC2Ev
FN:6,_ZN28TimeSpan_Initialization_TestD2Ev
FN:6,_ZN28TimeSpan_Initialization_Test8TestBodyEv
FN:13,_ZN28TimeSpan_GetNanoseconds_Test8TestBodyEv
FN:13,_ZN28TimeSpan_GetNanoseconds_TestC2Ev
FN:13,_ZN28TimeSpan_GetNanoseconds_TestD0Ev
FN:13,_ZN28TimeSpan_GetNanoseconds_TestD2Ev
FN:20,_ZN29TimeSpan_GetMicroseconds_TestD0Ev
FN:20,_ZN29TimeSpan_GetMicroseconds_TestC2Ev
FN:20,_ZN29TimeSpan_GetMicroseconds_TestD2Ev
FN:20,_ZN29TimeSpan_GetMicroseconds_Test8TestBodyEv
FN:27,_ZN29TimeSpan_GetMilliseconds_Test8TestBodyEv
FN:27,_ZN29TimeSpan_GetMilliseconds_TestD0Ev
FN:27,_ZN29TimeSpan_GetMilliseconds_TestD2Ev
FN:27,_ZN29TimeSpan_GetMilliseconds_TestC2Ev
FN:34,_ZN24TimeSpan_GetSeconds_Test8TestBodyEv
FN:34,_ZN24TimeSpan_GetSeconds_TestD2Ev
FN:34,_ZN24TimeSpan_GetSeconds_TestC2Ev
FN:34,_ZN24TimeSpan_GetSeconds_TestD0Ev
FN:41,_ZN24TimeSpan_GetMinutes_TestC2Ev
FN:41,_ZN24TimeSpan_GetMinutes_Test8TestBodyEv
FN:41,_ZN24TimeSpan_GetMinutes_TestD2Ev
FN:41,_ZN24TimeSpan_GetMinutes_TestD0Ev
FN:48,_ZN22TimeSpan_GetHours_TestC2Ev
FN:48,_ZN22TimeSpan_GetHours_TestD0Ev
FN:48,_ZN22TimeSpan_GetHours_Test8TestBodyEv
FN:48,_ZN22TimeSpan_GetHours_TestD2Ev
FN:55,_ZN17TimeSpan_Add_TestC2Ev
FN:55,_ZN17TimeSpan_Add_TestD0Ev
FN:55,_ZN17TimeSpan_Add_Test8TestBodyEv
FN:55,_ZN17TimeSpan_Add_TestD2Ev
FN:63,_ZN23TimeSpan_Substract_TestC2Ev
FN:63,_ZN23TimeSpan_Substract_Test8TestBodyEv
FN:63,_ZN23TimeSpan_Substract_TestD2Ev
FN:63,_ZN23TimeSpan_Substract_TestD0Ev
FN:71,_ZN22TimeSpan_Multiply_TestD2Ev
FN:71,_ZN22TimeSpan_Multiply_Test8TestBodyEv
FN:71,_ZN22TimeSpan_Multiply_TestC2Ev
FN:71,_ZN22TimeSpan_Multiply_TestD0Ev
FN:78,_ZN20TimeSpan_Divide_Test8TestBodyEv
FN:78,_ZN20TimeSpan_Divide_TestD0Ev
FN:78,_ZN20TimeSpan_Divide_TestD2Ev
FN:78,_ZN20TimeSpan_Divide_TestC2Ev
FN:85,_ZN20TimeSpan_Equals_TestD0Ev
FN:85,_ZN20TimeSpan_Equals_TestD2Ev
FN:85,_ZN20TimeSpan_Equals_Test8TestBodyEv
FN:85,_ZN20TimeSpan_Equals_TestC2Ev
FNDA:1,_ZN20TimeSpan_Equals_TestD0Ev
FNDA:1,_ZN20TimeSpan_Divide_Test8TestBodyEv
FNDA:1,_ZN22TimeSpan_GetHours_TestD0Ev
FNDA:1,_ZN22TimeSpan_GetHours_TestC2Ev
FNDA:1,_ZN24TimeSpan_GetMinutes_TestC2Ev
FNDA:1,_ZN28TimeSpan_Initialization_TestD0Ev
FNDA:1,_ZN29TimeSpan_GetMicroseconds_TestD0Ev
FNDA:1,_ZN28TimeSpan_GetNanoseconds_Test8TestBodyEv
FNDA:1,_ZN24TimeSpan_GetSeconds_Test8TestBodyEv
FNDA:1,_ZN24TimeSpan_GetSeconds_TestD2Ev
FNDA:1,_ZN20TimeSpan_Divide_TestD0Ev
FNDA:1,_ZN22TimeSpan_GetHours_Test8TestBodyEv
FNDA:1,_ZN29TimeSpan_GetMilliseconds_Test8TestBodyEv
FNDA:1,_ZN23TimeSpan_Substract_TestC2Ev
FNDA:1,_ZN28TimeSpan_Initialization_TestC2Ev
FNDA:1,_ZN28TimeSpan_GetNanoseconds_TestC2Ev
FNDA:1,_ZN28TimeSpan_GetNanoseconds_TestD0Ev
FNDA:1,_ZN22TimeSpan_GetHours_TestD2Ev
FNDA:1,_ZN22TimeSpan_Multiply_TestD2Ev
FNDA:1,_ZN23TimeSpan_Substract_Test8TestBodyEv
FNDA:1,_ZN17TimeSpan_Add_TestD0Ev
FNDA:1,_ZN29TimeSpan_GetMilliseconds_TestD0Ev
FNDA:1,_ZN28TimeSpan_Initialization_TestD2Ev
FNDA:1,_ZN20TimeSpan_Divide_TestC2Ev
FNDA:1,_ZN22TimeSpan_Multiply_Test8TestBodyEv
FNDA:1,_ZN17TimeSpan_Add_TestC2Ev
FNDA:1,_ZN20TimeSpan_Divide_TestD2Ev
FNDA:1,_ZN23TimeSpan_Substract_TestD2Ev
FNDA:1,_ZN28TimeSpan_GetNanoseconds_TestD2Ev
FNDA:1,_ZN28TimeSpan_Initialization_Test8TestBodyEv
FNDA:1,_ZN29TimeSpan_GetMilliseconds_TestD2Ev
FNDA:1,_ZN22TimeSpan_Multiply_TestC2Ev
FNDA:1,_ZN24TimeSpan_GetMinutes_Test8TestBodyEv
FNDA:1,_ZN17TimeSpan_Add_Test8TestBodyEv
FNDA:1,_ZN17TimeSpan_Add_TestD2Ev
FNDA:1,_ZN24TimeSpan_GetSeconds_TestD0Ev
FNDA:1,_ZN29TimeSpan_GetMicroseconds_TestD2Ev
FNDA:1,_ZN29TimeSpan_GetMilliseconds_TestC2Ev
FNDA:1,_ZN24TimeSpan_GetSeconds_TestC2Ev
FNDA:1,_ZN29TimeSpan_GetMicroseconds_TestC2Ev
FNDA:1,_ZN20TimeSpan_Equals_TestC2Ev
FNDA:1,_ZN22TimeSpan_Multiply_TestD0Ev
FNDA:1,_ZN24TimeSpan_GetMinutes_TestD0Ev
FNDA:1,_ZN20TimeSpan_Equals_TestD2Ev
FNDA:1,_ZN20TimeSpan_Equals_Test8TestBodyEv
FNDA:1,_ZN29TimeSpan_GetMicroseconds_Test8TestBodyEv
FNDA:1,_ZN23TimeSpan_Substract_TestD0Ev
FNDA:1,_ZN24TimeSpan_GetMinutes_TestD2Ev
FNF:48
FNH:48
DA:6,4
DA:8,1
DA:10,1
DA:13,4
DA:15,1
DA:17,1
DA:20,4
DA:22,1
DA:24,1
DA:27,4
DA:29,1
DA:31,1
DA:34,4
DA:36,1
DA:38,1
DA:41,4
DA:43,1
DA:45,1
DA:48,4
DA:50,1
DA:52,1
DA:55,4
DA:57,1
DA:58,1
DA:60,1
DA:63,4
DA:65,1
DA:66,1
DA:68,1
DA:71,4
DA:73,1
DA:75,1
DA:78,4
DA:80,1
DA:82,1
DA:85,4
DA:87,1
DA:88,1
DA:90,1
LF:39
LH:39
end_of_record
TN:
SF:/home/usr/Sources/SDK/IO.SDK.Tests/TowardObjectAttitudeTests.cpp
FN:18,_ZN40TowardObjectAttitude_GetOrientation_TestD2Ev
FN:18,_ZN40TowardObjectAttitude_GetOrientation_TestD0Ev
FN:18,_ZN40TowardObjectAttitude_GetOrientation_Test8TestBodyEv
FN:18,_ZN40TowardObjectAttitude_GetOrientation_TestC2Ev
FN:54,_ZN54TowardObjectAttitude_GetOrientationNotBeforeEpoch_TestD2Ev
FN:54,_ZN54TowardObjectAttitude_GetOrientationNotBeforeEpoch_TestD0Ev
FN:54,_ZN54TowardObjectAttitude_GetOrientationNotBeforeEpoch_Test8TestBodyEv
FN:54,_ZN54TowardObjectAttitude_GetOrientationNotBeforeEpoch_TestC2Ev
FNDA:1,_ZN40TowardObjectAttitude_GetOrientation_TestC2Ev
FNDA:1,_ZN54TowardObjectAttitude_GetOrientationNotBeforeEpoch_TestC2Ev
FNDA:1,_ZN40TowardObjectAttitude_GetOrientation_TestD0Ev
FNDA:1,_ZN54TowardObjectAttitude_GetOrientationNotBeforeEpoch_TestD2Ev
FNDA:1,_ZN54TowardObjectAttitude_GetOrientationNotBeforeEpoch_TestD0Ev
FNDA:1,_ZN40TowardObjectAttitude_GetOrientation_TestD2Ev
FNDA:1,_ZN54TowardObjectAttitude_GetOrientationNotBeforeEpoch_Test8TestBodyEv
FNDA:1,_ZN40TowardObjectAttitude_GetOrientation_Test8TestBodyEv
FNF:8
FNH:8
DA:18,4
DA:21,1
DA:22,1
DA:23,1
DA:25,2
DA:27,3
DA:29,1
DA:31,3
DA:33,1
DA:34,1
DA:36,1
DA:38,1
DA:39,1
DA:41,1
DA:42,1
DA:44,1
DA:46,2
DA:48,1
DA:49,2
DA:50,1
DA:51,1
DA:54,4
DA:57,1
DA:58,1
DA:59,1
DA:61,2
DA:63,3
DA:65,1
DA:67,3
DA:69,1
DA:70,1
DA:72,1
DA:74,1
DA:75,1
DA:77,2
DA:78,1
DA:80,1
DA:82,2
DA:84,1
DA:85,2
DA:86,1
DA:87,1
DA:88,3
DA:89,3
DA:90,1
LF:45
LH:45
end_of_record
TN:
SF:/home/usr/Sources/SDK/IO.SDK.Tests/UTCTests.cpp
FN:6,_ZN17UTC_ToString_Test8TestBodyEv
FN:6,_ZN17UTC_ToString_TestC2Ev
FN:6,_ZN17UTC_ToString_TestD0Ev
FN:6,_ZN17UTC_ToString_TestD2Ev
FN:12,_ZN17UTC_ToJulian_TestC2Ev
FN:12,_ZN17UTC_ToJulian_Test8TestBodyEv
FN:12,_ZN17UTC_ToJulian_TestD2Ev
FN:12,_ZN17UTC_ToJulian_TestD0Ev
FN:18,_ZN27UTC_CenturiesFromJ2000_TestC2Ev
FN:18,_ZN27UTC_CenturiesFromJ2000_TestD0Ev
FN:18,_ZN27UTC_CenturiesFromJ2000_TestD2Ev
FN:18,_ZN27UTC_CenturiesFromJ2000_Test8TestBodyEv
FN:24,_ZN14UTC_ToTDB_TestD0Ev
FN:24,_ZN14UTC_ToTDB_TestC2Ev
FN:24,_ZN14UTC_ToTDB_TestD2Ev
FN:24,_ZN14UTC_ToTDB_Test8TestBodyEv
FNDA:1,_ZN17UTC_ToString_TestC2Ev
FNDA:1,_ZN17UTC_ToString_TestD0Ev
FNDA:1,_ZN27UTC_CenturiesFromJ2000_Test8TestBodyEv
FNDA:1,_ZN14UTC_ToTDB_TestD2Ev
FNDA:1,_ZN17UTC_ToString_TestD2Ev
FNDA:1,_ZN14UTC_ToTDB_Test8TestBodyEv
FNDA:1,_ZN27UTC_CenturiesFromJ2000_TestD0Ev
FNDA:1,_ZN17UTC_ToString_Test8TestBodyEv
FNDA:1,_ZN27UTC_CenturiesFromJ2000_TestD2Ev
FNDA:1,_ZN17UTC_ToJulian_TestD2Ev
FNDA:1,_ZN14UTC_ToTDB_TestC2Ev
FNDA:1,_ZN17UTC_ToJulian_TestD0Ev
FNDA:1,_ZN14UTC_ToTDB_TestD0Ev
FNDA:1,_ZN17UTC_ToJulian_Test8TestBodyEv
FNDA:1,_ZN17UTC_ToJulian_TestC2Ev
FNDA:1,_ZN27UTC_CenturiesFromJ2000_TestC2Ev
FNF:16
FNH:16
DA:6,4
DA:8,2
DA:9,2
DA:12,4
DA:14,2
DA:15,1
DA:18,4
DA:20,2
DA:21,1
DA:24,4
DA:26,2
DA:27,2
LF:12
LH:12
end_of_record
TN:
SF:/home/usr/Sources/SDK/IO.SDK.Tests/VVIntegratorTests.cpp
FN:11,_ZN34VVIntegrator_IntegrateGravity_TestC2Ev
FN:11,_ZN34VVIntegrator_IntegrateGravity_Test8TestBodyEv
FN:11,_ZN34VVIntegrator_IntegrateGravity_TestD0Ev
FN:11,_ZN34VVIntegrator_IntegrateGravity_TestD2Ev
FNDA:1,_ZN34VVIntegrator_IntegrateGravity_TestD2Ev
FNDA:1,_ZN34VVIntegrator_IntegrateGravity_TestD0Ev
FNDA:1,_ZN34VVIntegrator_IntegrateGravity_Test8TestBodyEv
FNDA:1,_ZN34VVIntegrator_IntegrateGravity_TestC2Ev
FNF:4
FNH:4
DA:11,4
DA:13,1
DA:15,1
DA:16,1
DA:18,1
DA:19,2
DA:20,1
DA:25,1
DA:30,1
DA:31,1
DA:32,1
DA:33,3
DA:38,1
DA:46,1
DA:47,1
DA:48,1
DA:49,1
DA:50,1
DA:51,1
LF:19
LH:19
end_of_record
TN:
SF:/home/usr/Sources/SDK/IO.SDK.Tests/VectorTests.cpp
FN:6,_ZN26Vector_Initialization_TestD2Ev
FN:6,_ZN26Vector_Initialization_TestD0Ev
FN:6,_ZN26Vector_Initialization_TestC2Ev
FN:6,_ZN26Vector_Initialization_Test8TestBodyEv
FN:14,_ZN21Vector_Magnitude_TestD0Ev
FN:14,_ZN21Vector_Magnitude_TestC2Ev
FN:14,_ZN21Vector_Magnitude_Test8TestBodyEv
FN:14,_ZN21Vector_Magnitude_TestD2Ev
FN:20,_ZN15Vector_Add_Test8TestBodyEv
FN:20,_ZN15Vector_Add_TestD2Ev
FN:20,_ZN15Vector_Add_TestC2Ev
FN:20,_ZN15Vector_Add_TestD0Ev
FN:31,_ZN21Vector_Substract_TestD0Ev
FN:31,_ZN21Vector_Substract_TestD2Ev
FN:31,_ZN21Vector_Substract_TestC2Ev
FN:31,_ZN21Vector_Substract_Test8TestBodyEv
FN:42,_ZN20Vector_Multiply_TestD2Ev
FN:42,_ZN20Vector_Multiply_Test8TestBodyEv
FN:42,_ZN20Vector_Multiply_TestD0Ev
FN:42,_ZN20Vector_Multiply_TestC2Ev
FN:53,_ZN18Vector_Divide_Test8TestBodyEv
FN:53,_ZN18Vector_Divide_TestD2Ev
FN:53,_ZN18Vector_Divide_TestD0Ev
FN:53,_ZN18Vector_Divide_TestC2Ev
FN:63,_ZN24Vector_CrossProduct_TestC2Ev
FN:63,_ZN24Vector_CrossProduct_TestD0Ev
FN:63,_ZN24Vector_CrossProduct_TestD2Ev
FN:63,_ZN24Vector_CrossProduct_Test8TestBodyEv
FN:74,_ZN22Vector_DotProduct_TestD0Ev
FN:74,_ZN22Vector_DotProduct_TestD2Ev
FN:74,_ZN22Vector_DotProduct_Test8TestBodyEv
FN:74,_ZN22Vector_DotProduct_TestC2Ev
FN:83,_ZN21Vector_Normalize_TestD2Ev
FN:83,_ZN21Vector_Normalize_TestC2Ev
FN:83,_ZN21Vector_Normalize_TestD0Ev
FN:83,_ZN21Vector_Normalize_Test8TestBodyEv
FN:97,_ZN20Vector_GetAngle_TestC2Ev
FN:97,_ZN20Vector_GetAngle_Test8TestBodyEv
FN:97,_ZN20Vector_GetAngle_TestD0Ev
FN:97,_ZN20Vector_GetAngle_TestD2Ev
FN:116,_ZN18Vector_Rotate_Test8TestBodyEv
FN:116,_ZN18Vector_Rotate_TestD2Ev
FN:116,_ZN18Vector_Rotate_TestD0Ev
FN:116,_ZN18Vector_Rotate_TestC2Ev
FN:155,_ZN14Vector_To_TestD0Ev
FN:155,_ZN14Vector_To_Test8TestBodyEv
FN:155,_ZN14Vector_To_TestD2Ev
FN:155,_ZN14Vector_To_TestC2Ev
FN:169,_ZN19Vector_Reverse_Test8TestBodyEv
FN:169,_ZN19Vector_Reverse_TestD0Ev
FN:169,_ZN19Vector_Reverse_TestC2Ev
FN:169,_ZN19Vector_Reverse_TestD2Ev
FNDA:1,_ZN18Vector_Divide_Test8TestBodyEv
FNDA:1,_ZN24Vector_CrossProduct_TestC2Ev
FNDA:1,_ZN20Vector_GetAngle_TestC2Ev
FNDA:1,_ZN26Vector_Initialization_TestD2Ev
FNDA:1,_ZN21Vector_Substract_TestD0Ev
FNDA:1,_ZN21Vector_Normalize_TestD2Ev
FNDA:1,_ZN20Vector_Multiply_TestD2Ev
FNDA:1,_ZN18Vector_Divide_TestD0Ev
FNDA:1,_ZN18Vector_Divide_TestD2Ev
FNDA:1,_ZN21Vector_Magnitude_TestD0Ev
FNDA:1,_ZN22Vector_DotProduct_TestD0Ev
FNDA:1,_ZN21Vector_Substract_TestD2Ev
FNDA:1,_ZN14Vector_To_TestD0Ev
FNDA:1,_ZN22Vector_DotProduct_TestD2Ev
FNDA:1,_ZN24Vector_CrossProduct_TestD0Ev
FNDA:1,_ZN15Vector_Add_Test8TestBodyEv
FNDA:1,_ZN21Vector_Magnitude_TestC2Ev
FNDA:1,_ZN18Vector_Divide_TestC2Ev
FNDA:1,_ZN21Vector_Substract_Test8TestBodyEv
FNDA:1,_ZN20Vector_GetAngle_Test8TestBodyEv
FNDA:1,_ZN20Vector_Multiply_Test8TestBodyEv
FNDA:1,_ZN20Vector_Multiply_TestD0Ev
FNDA:1,_ZN21Vector_Substract_TestC2Ev
FNDA:1,_ZN26Vector_Initialization_TestD0Ev
FNDA:1,_ZN18Vector_Rotate_Test8TestBodyEv
FNDA:1,_ZN15Vector_Add_TestD2Ev
FNDA:1,_ZN22Vector_DotProduct_Test8TestBodyEv
FNDA:1,_ZN19Vector_Reverse_Test8TestBodyEv
FNDA:1,_ZN20Vector_GetAngle_TestD0Ev
FNDA:1,_ZN26Vector_Initialization_TestC2Ev
FNDA:1,_ZN21Vector_Normalize_TestC2Ev
FNDA:1,_ZN24Vector_CrossProduct_Test8TestBodyEv
FNDA:1,_ZN24Vector_CrossProduct_TestD2Ev
FNDA:1,_ZN18Vector_Rotate_TestD2Ev
FNDA:1,_ZN14Vector_To_Test8TestBodyEv
FNDA:1,_ZN21Vector_Magnitude_Test8TestBodyEv
FNDA:1,_ZN15Vector_Add_TestC2Ev
FNDA:1,_ZN19Vector_Reverse_TestD0Ev
FNDA:1,_ZN22Vector_DotProduct_TestC2Ev
FNDA:1,_ZN14Vector_To_TestD2Ev
FNDA:1,_ZN20Vector_Multiply_TestC2Ev
FNDA:1,_ZN20Vector_GetAngle_TestD2Ev
FNDA:1,_ZN18Vector_Rotate_TestD0Ev
FNDA:1,_ZN15Vector_Add_TestD0Ev
FNDA:1,_ZN26Vector_Initialization_Test8TestBodyEv
FNDA:1,_ZN14Vector_To_TestC2Ev
FNDA:1,_ZN21Vector_Normalize_TestD0Ev
FNDA:1,_ZN21Vector_Normalize_Test8TestBodyEv
FNDA:1,_ZN18Vector_Rotate_TestC2Ev
FNDA:1,_ZN19Vector_Reverse_TestC2Ev
FNDA:1,_ZN21Vector_Magnitude_TestD2Ev
FNDA:1,_ZN19Vector_Reverse_TestD2Ev
FNF:52
FNH:52
DA:6,4
DA:8,1
DA:9,1
DA:10,1
DA:11,1
DA:14,4
DA:16,1
DA:17,1
DA:20,4
DA:22,1
DA:23,1
DA:24,1
DA:26,1
DA:27,1
DA:28,1
DA:31,4
DA:33,1
DA:34,1
DA:35,1
DA:37,1
DA:38,1
DA:39,1
DA:42,4
DA:44,1
DA:46,1
DA:48,1
DA:49,1
DA:50,1
DA:53,4
DA:55,1
DA:56,1
DA:58,1
DA:59,1
DA:60,1
DA:63,4
DA:65,1
DA:66,1
DA:67,1
DA:69,1
DA:70,1
DA:71,1
DA:74,4
DA:76,1
DA:77,1
DA:78,1
DA:80,1
DA:83,4
DA:85,1
DA:86,1
DA:88,1
DA:89,1
DA:90,1
DA:91,1
DA:93,1
DA:94,1
DA:97,4
DA:99,1
DA:100,1
DA:101,1
DA:103,1
DA:105,1
DA:106,1
DA:107,1
DA:108,1
DA:110,1
DA:111,1
DA:112,1
DA:113,1
DA:116,4
DA:118,1
DA:119,1
DA:120,1
DA:122,1
DA:123,1
DA:124,1
DA:126,1
DA:127,1
DA:129,1
DA:130,1
DA:131,1
DA:133,1
DA:134,1
DA:136,1
DA:137,1
DA:138,1
DA:140,1
DA:141,1
DA:143,1
DA:144,1
DA:145,1
DA:147,1
DA:148,1
DA:150,1
DA:151,1
DA:152,1
DA:155,4
DA:157,1
DA:158,1
DA:160,1
DA:162,1
DA:164,1
DA:165,1
DA:166,1
DA:169,4
DA:171,1
DA:173,1
DA:175,1
DA:176,1
DA:177,1
LF:109
LH:109
end_of_record
TN:
SF:/home/usr/Sources/SDK/IO.SDK.Tests/WindowTests.cpp
FN:8,_ZN18Window_Length_Test8TestBodyEv
FN:8,_ZN18Window_Length_TestD0Ev
FN:8,_ZN18Window_Length_TestD2Ev
FN:8,_ZN18Window_Length_TestC2Ev
FN:17,_ZN19Window_EndDate_Test8TestBodyEv
FN:17,_ZN19Window_EndDate_TestC2Ev
FN:17,_ZN19Window_EndDate_TestD0Ev
FN:17,_ZN19Window_EndDate_TestD2Ev
FN:26,_ZN18Window_Equals_TestC2Ev
FN:26,_ZN18Window_Equals_TestD0Ev
FN:26,_ZN18Window_Equals_TestD2Ev
FN:26,_ZN18Window_Equals_Test8TestBodyEv
FN:41,_ZN22Window_Intersects_TestD0Ev
FN:41,_ZN22Window_Intersects_Test8TestBodyEv
FN:41,_ZN22Window_Intersects_TestD2Ev
FN:41,_ZN22Window_Intersects_TestC2Ev
FN:76,_ZN17Window_Merge_Test8TestBodyEv
FN:76,_ZN17Window_Merge_TestD2Ev
FN:76,_ZN17Window_Merge_TestD0Ev
FN:76,_ZN17Window_Merge_TestC2Ev
FN:92,_ZN18Window_Merge2_Test8TestBodyEv
FN:92,_ZN18Window_Merge2_TestD0Ev
FN:92,_ZN18Window_Merge2_TestC2Ev
FN:92,_ZN18Window_Merge2_TestD2Ev
FN:108,_ZN18Window_Merge3_TestD2Ev
FN:108,_ZN18Window_Merge3_Test8TestBodyEv
FN:108,_ZN18Window_Merge3_TestC2Ev
FN:108,_ZN18Window_Merge3_TestD0Ev
FNDA:1,_ZN18Window_Merge2_TestD0Ev
FNDA:1,_ZN17Window_Merge_TestD2Ev
FNDA:1,_ZN18Window_Merge3_Test8TestBodyEv
FNDA:1,_ZN22Window_Intersects_TestD2Ev
FNDA:1,_ZN18Window_Equals_TestD2Ev
FNDA:1,_ZN19Window_EndDate_TestC2Ev
FNDA:1,_ZN18Window_Merge3_TestD2Ev
FNDA:1,_ZN19Window_EndDate_TestD0Ev
FNDA:1,_ZN18Window_Equals_TestC2Ev
FNDA:1,_ZN17Window_Merge_Test8TestBodyEv
FNDA:1,_ZN22Window_Intersects_Test8TestBodyEv
FNDA:1,_ZN18Window_Equals_TestD0Ev
FNDA:1,_ZN19Window_EndDate_Test8TestBodyEv
FNDA:1,_ZN22Window_Intersects_TestD0Ev
FNDA:1,_ZN18Window_Merge2_Test8TestBodyEv
FNDA:1,_ZN18Window_Length_Test8TestBodyEv
FNDA:1,_ZN17Window_Merge_TestC2Ev
FNDA:1,_ZN19Window_EndDate_TestD2Ev
FNDA:1,_ZN18Window_Merge2_TestD2Ev
FNDA:1,_ZN18Window_Length_TestC2Ev
FNDA:1,_ZN18Window_Merge2_TestC2Ev
FNDA:1,_ZN22Window_Intersects_TestC2Ev
FNDA:1,_ZN18Window_Merge3_TestC2Ev
FNDA:1,_ZN18Window_Equals_Test8TestBodyEv
FNDA:1,_ZN18Window_Merge3_TestD0Ev
FNDA:1,_ZN17Window_Merge_TestD0Ev
FNDA:1,_ZN18Window_Length_TestD0Ev
FNDA:1,_ZN18Window_Length_TestD2Ev
FNF:28
FNH:28
DA:8,4
DA:10,2
DA:11,2
DA:13,2
DA:14,1
DA:17,4
DA:19,2
DA:20,1
DA:22,1
DA:23,2
DA:26,4
DA:28,2
DA:29,2
DA:30,2
DA:32,2
DA:33,2
DA:34,1
DA:36,2
DA:38,1
DA:41,4
DA:43,2
DA:44,2
DA:45,2
DA:46,2
DA:48,2
DA:49,2
DA:50,1
DA:51,1
DA:53,2
DA:54,1
DA:55,1
DA:57,2
DA:58,1
DA:59,1
DA:61,2
DA:62,1
DA:63,1
DA:65,2
DA:66,1
DA:67,1
DA:69,2
DA:70,1
DA:71,1
DA:73,1
DA:76,4
DA:78,2
DA:79,2
DA:80,2
DA:81,2
DA:83,2
DA:84,2
DA:86,1
DA:88,1
DA:89,1
DA:92,4
DA:94,2
DA:95,2
DA:96,2
DA:97,2
DA:99,2
DA:100,2
DA:102,1
DA:104,1
DA:105,1
DA:108,4
DA:110,2
DA:111,2
DA:112,2
DA:113,2
DA:115,2
DA:116,2
DA:118,1
DA:120,1
DA:121,1
LF:74
LH:74
end_of_record
TN:
SF:/home/usr/Sources/SDK/IO.SDK.Tests/ZenithAttitudeTests.cpp
FN:18,_ZN34ZenithAttitude_GetOrientation_TestD0Ev
FN:18,_ZN34ZenithAttitude_GetOrientation_TestC2Ev
FN:18,_ZN34ZenithAttitude_GetOrientation_TestD2Ev
FN:18,_ZN34ZenithAttitude_GetOrientation_Test8TestBodyEv
FN:54,_ZN48ZenithAttitude_GetOrientationNotBeforeEpoch_TestD0Ev
FN:54,_ZN48ZenithAttitude_GetOrientationNotBeforeEpoch_TestC2Ev
FN:54,_ZN48ZenithAttitude_GetOrientationNotBeforeEpoch_TestD2Ev
FN:54,_ZN48ZenithAttitude_GetOrientationNotBeforeEpoch_Test8TestBodyEv
FNDA:1,_ZN48ZenithAttitude_GetOrientationNotBeforeEpoch_TestC2Ev
FNDA:1,_ZN48ZenithAttitude_GetOrientationNotBeforeEpoch_TestD2Ev
FNDA:1,_ZN34ZenithAttitude_GetOrientation_TestD2Ev
FNDA:1,_ZN48ZenithAttitude_GetOrientationNotBeforeEpoch_Test8TestBodyEv
FNDA:1,_ZN34ZenithAttitude_GetOrientation_Test8TestBodyEv
FNDA:1,_ZN34ZenithAttitude_GetOrientation_TestD0Ev
FNDA:1,_ZN34ZenithAttitude_GetOrientation_TestC2Ev
FNDA:1,_ZN48ZenithAttitude_GetOrientationNotBeforeEpoch_TestD0Ev
FNF:8
FNH:8
DA:18,4
DA:20,1
DA:22,2
DA:24,3
DA:26,1
DA:28,3
DA:30,1
DA:31,1
DA:33,1
DA:35,1
DA:36,1
DA:38,1
DA:39,1
DA:41,1
DA:43,2
DA:45,1
DA:46,2
DA:47,1
DA:48,1
DA:49,3
DA:50,3
DA:51,1
DA:54,4
DA:56,1
DA:58,2
DA:60,3
DA:62,1
DA:64,3
DA:66,1
DA:67,1
DA:69,1
DA:71,1
DA:72,1
DA:74,2
DA:75,1
DA:77,1
DA:79,2
DA:81,1
DA:82,2
DA:83,1
DA:84,1
DA:85,3
DA:86,3
DA:87,1
LF:44
LH:44
end_of_record
TN:
SF:/home/usr/Sources/SDK/IO.SDK/Aberrations.cpp
FN:14,_ZNK2IO3SDK11Aberrations8ToStringB5cxx11ENS0_15AberrationsEnumE
FNDA:731,_ZNK2IO3SDK11Aberrations8ToStringB5cxx11ENS0_15AberrationsEnumE
FNF:1
FNH:1
DA:14,731
DA:26,731
DA:27,731
DA:28,2193
LF:4
LH:4
end_of_record
TN:
SF:/home/usr/Sources/SDK/IO.SDK/Body/Body.cpp
FN:22,_ZN2IO3SDK4Body4BodyC2EiRKNSt7__cxx1112basic_stringIcSt11char_traitsIcESaIcEEEd
FN:31,_ZN2IO3SDK4Body4BodyC2EiRKNSt7__cxx1112basic_stringIcSt11char_traitsIcESaIcEEEdSt10unique_ptrINS0_17OrbitalParameters17OrbitalParametersESt14default_deleteISD_EE
FN:37,_ZN2IO3SDK4Body4BodyC2EiRKNSt7__cxx1112basic_stringIcSt11char_traitsIcESaIcEEEdRSt10shared_ptrINS1_13CelestialBodyEE
FN:43,_ZN2IO3SDK4Body4BodyC2ERKS2_
FN:45,_ZNK2IO3SDK4Body4Body5GetIdEv
FN:50,_ZNK2IO3SDK4Body4Body7GetNameB5cxx11Ev
FN:55,_ZNK2IO3SDK4Body4Body7GetMassEv
FN:60,_ZNK2IO3SDK4Body4Body5GetMuEv
FN:65,_ZNK2IO3SDK4Body4Body27GetOrbitalParametersAtEpochEv
FN:70,_ZNK2IO3SDK4Body4Body13GetSatellitesEv
FN:75,_ZNK2IO3SDK4Body4Body13ReadEphemerisERKNS0_6Frames6FramesENS0_15AberrationsEnumERKNS0_4Time3TDBERKNS1_13CelestialBodyE
FN:91,_ZNK2IO3SDK4Body4Body13ReadEphemerisERKNS0_6Frames6FramesENS0_15AberrationsEnumERKNS0_4Time3TDBE
FN:105,_ZNK2IO3SDK4Body4BodyeqERKS2_
FN:110,_ZNK2IO3SDK4Body4BodyneERKS2_
FN:115,_ZN2IO3SDK4Body4Body16GetSharedPointerEv
FN:120,_ZNK2IO3SDK4Body4Body31FindWindowsOnDistanceConstraintENS0_4Time6WindowINS3_3TDBEEERKS2_S8_RKNS0_10ConstraintENS0_15AberrationsEnumEdRKNS3_8TimeSpanE
FN:149,_ZNK2IO3SDK4Body4Body34FindWindowsOnOccultationConstraintENS0_4Time6WindowINS3_3TDBEEERKNS1_13CelestialBodyES9_RKNS0_15OccultationTypeENS0_15AberrationsEnumERKNS3_8TimeSpanE
FN:177,_ZNK2IO3SDK4Body4Body19GetSubObserverPointERKNS1_13CelestialBodyERKNS0_15AberrationsEnumERKNS0_4Time8DateTimeE
FN:190,_ZNK2IO3SDK4Body4Body16GetSubSolarPointERKNS1_13CelestialBodyENS0_15AberrationsEnumERKNS0_4Time3TDBE
FNDA:1,_ZNK2IO3SDK4Body4Body19GetSubObserverPointERKNS1_13CelestialBodyERKNS0_15AberrationsEnumERKNS0_4Time8DateTimeE
FNDA:822,_ZN2IO3SDK4Body4BodyC2EiRKNSt7__cxx1112basic_stringIcSt11char_traitsIcESaIcEEEd
FNDA:312,_ZNK2IO3SDK4Body4Body13ReadEphemerisERKNS0_6Frames6FramesENS0_15AberrationsEnumERKNS0_4Time3TDBE
FNDA:1,_ZNK2IO3SDK4Body4Body16GetSubSolarPointERKNS1_13CelestialBodyENS0_15AberrationsEnumERKNS0_4Time3TDBE
FNDA:621500,_ZNK2IO3SDK4Body4BodyeqERKS2_
FNDA:71,_ZN2IO3SDK4Body4BodyC2EiRKNSt7__cxx1112basic_stringIcSt11char_traitsIcESaIcEEEdRSt10shared_ptrINS1_13CelestialBodyEE
FNDA:1,_ZNK2IO3SDK4Body4Body34FindWindowsOnOccultationConstraintENS0_4Time6WindowINS3_3TDBEEERKNS1_13CelestialBodyES9_RKNS0_15OccultationTypeENS0_15AberrationsEnumERKNS3_8TimeSpanE
FNDA:1,_ZN2IO3SDK4Body4Body16GetSharedPointerEv
FNDA:71808,_ZNK2IO3SDK4Body4BodyneERKS2_
FNDA:2487499,_ZNK2IO3SDK4Body4Body7GetMassEv
FNDA:1866323,_ZNK2IO3SDK4Body4Body27GetOrbitalParametersAtEpochEv
FNDA:2248,_ZNK2IO3SDK4Body4Body5GetIdEv
FNDA:1243274,_ZNK2IO3SDK4Body4Body13GetSatellitesEv
FNDA:399,_ZN2IO3SDK4Body4BodyC2ERKS2_
FNDA:114,_ZN2IO3SDK4Body4BodyC2EiRKNSt7__cxx1112basic_stringIcSt11char_traitsIcESaIcEEEdSt10unique_ptrINS0_17OrbitalParameters17OrbitalParametersESt14default_deleteISD_EE
FNDA:392,_ZNK2IO3SDK4Body4Body13ReadEphemerisERKNS0_6Frames6FramesENS0_15AberrationsEnumERKNS0_4Time3TDBERKNS1_13CelestialBodyE
FNDA:1,_ZNK2IO3SDK4Body4Body31FindWindowsOnDistanceConstraintENS0_4Time6WindowINS3_3TDBEEERKS2_S8_RKNS0_10ConstraintENS0_15AberrationsEnumEdRKNS3_8TimeSpanE
FNDA:758,_ZNK2IO3SDK4Body4Body7GetNameB5cxx11Ev
FNDA:1791021,_ZNK2IO3SDK4Body4Body5GetMuEv
FNF:19
FNH:19
DA:22,822
DA:24,822
DA:25,822
DA:26,822
DA:29,822
DA:31,114
DA:33,114
DA:34,114
DA:35,114
DA:37,71
DA:39,71
DA:40,71
DA:41,71
DA:43,399
DA:45,2248
DA:47,2248
DA:50,758
DA:52,758
DA:55,2487499
DA:57,2487499
DA:60,1791021
DA:62,1791021
DA:65,1866323
DA:67,1866323
DA:70,1243274
DA:72,1243274
DA:75,392
DA:80,392
DA:83,2744
DA:85,2352
DA:88,784
DA:91,312
DA:96,312
DA:98,2184
DA:100,1872
DA:102,624
DA:105,621500
DA:107,621500
DA:110,71808
DA:112,71808
DA:115,1
DA:117,1
DA:120,1
DA:122,1
DA:128,1
DA:129,1
DA:132,1
DA:135,1
DA:137,1
DA:139,1
DA:141,5
DA:143,4
DA:144,4
DA:146,2
DA:149,1
DA:151,1
DA:157,1
DA:160,1
DA:163,1
DA:165,1
DA:167,1
DA:169,2
DA:171,1
DA:172,1
DA:174,2
DA:177,1
DA:183,1
DA:185,1
DA:187,2
DA:190,1
DA:196,1
DA:198,1
DA:200,2
LF:73
LH:73
end_of_record
TN:
SF:/home/usr/Sources/SDK/IO.SDK/Body/Body.h
FN:88,_ZN2IO3SDK4Body4BodyD2Ev
FN:88,_ZN2IO3SDK4Body4BodyD0Ev
FNDA:0,_ZN2IO3SDK4Body4BodyD0Ev
FNDA:822,_ZN2IO3SDK4Body4BodyD2Ev
FNF:2
FNH:1
DA:88,822
LF:1
LH:1
end_of_record
TN:
SF:/home/usr/Sources/SDK/IO.SDK/Body/CelestialBody.cpp
FN:23,_ZN2IO3SDK4Body13CelestialBodyC2EiRKNSt7__cxx1112basic_stringIcSt11char_traitsIcESaIcEEERSt10shared_ptrIS2_E
FN:29,_ZN2IO3SDK4Body13CelestialBodyC2EiRKNSt7__cxx1112basic_stringIcSt11char_traitsIcESaIcEEE
FN:35,_ZNK2IO3SDK4Body13CelestialBody20GetSphereOfInfluenceEv
FN:40,_ZNK2IO3SDK4Body13CelestialBody13GetHillSphereEv
FN:45,_ZN2IO3SDK4Body17SphereOfInfluenceEddd
FN:50,_ZN2IO3SDK4Body10HillSphereEdddd
FN:55,_ZN2IO3SDK4Body13CelestialBody6ReadGMEi
FN:63,_ZNK2IO3SDK4Body13CelestialBody22GetRelativeStatevectorERKNS0_17OrbitalParameters11StateVectorE
FN:75,_ZNK2IO3SDK4Body13CelestialBody21IsInSphereOfInfluenceERKNS0_17OrbitalParameters11StateVectorE
FN:81,_ZNK2IO3SDK4Body13CelestialBody14IsInHillSphereERKNS0_17OrbitalParameters11StateVectorE
FN:87,_ZNK2IO3SDK4Body13CelestialBody17GetBodyFixedFrameEv
FN:92,_ZNK2IO3SDK4Body13CelestialBody9GetRadiusEv
FN:101,_ZNK2IO3SDK4Body13CelestialBody13GetFlatteningEv
FN:107,_ZNK2IO3SDK4Body13CelestialBody18GetAngularVelocityERKNS0_4Time3TDBE
FN:114,_ZNK2IO3SDK4Body13CelestialBody24GetSideralRotationPeriodERKNS0_4Time3TDBE
FNDA:363,_ZNK2IO3SDK4Body13CelestialBody9GetRadiusEv
FNDA:291,_ZNK2IO3SDK4Body13CelestialBody17GetBodyFixedFrameEv
FNDA:238,_ZN2IO3SDK4Body13CelestialBodyC2EiRKNSt7__cxx1112basic_stringIcSt11char_traitsIcESaIcEEE
FNDA:309,_ZN2IO3SDK4Body13CelestialBody6ReadGMEi
FNDA:2,_ZNK2IO3SDK4Body13CelestialBody20GetSphereOfInfluenceEv
FNDA:71,_ZN2IO3SDK4Body13CelestialBodyC2EiRKNSt7__cxx1112basic_stringIcSt11char_traitsIcESaIcEEERSt10shared_ptrIS2_E
FNDA:2,_ZNK2IO3SDK4Body13CelestialBody21IsInSphereOfInfluenceERKNS0_17OrbitalParameters11StateVectorE
FNDA:9,_ZNK2IO3SDK4Body13CelestialBody18GetAngularVelocityERKNS0_4Time3TDBE
FNDA:6,_ZNK2IO3SDK4Body13CelestialBody24GetSideralRotationPeriodERKNS0_4Time3TDBE
FNDA:72,_ZN2IO3SDK4Body10HillSphereEdddd
FNDA:2,_ZNK2IO3SDK4Body13CelestialBody14IsInHillSphereERKNS0_17OrbitalParameters11StateVectorE
FNDA:2,_ZNK2IO3SDK4Body13CelestialBody13GetHillSphereEv
FNDA:178,_ZNK2IO3SDK4Body13CelestialBody13GetFlatteningEv
FNDA:5,_ZNK2IO3SDK4Body13CelestialBody22GetRelativeStatevectorERKNS0_17OrbitalParameters11StateVectorE
FNDA:72,_ZN2IO3SDK4Body17SphereOfInfluenceEddd
FNF:15
FNH:15
DA:23,71
DA:25,71
DA:26,71
DA:27,71
DA:29,238
DA:31,238
DA:32,238
DA:33,238
DA:35,2
DA:37,2
DA:40,2
DA:42,2
DA:45,72
DA:47,72
DA:50,72
DA:52,72
DA:55,309
DA:59,309
DA:60,309
DA:63,5
DA:65,5
DA:67,2
DA:70,3
DA:72,6
DA:75,2
DA:77,2
DA:78,4
DA:81,2
DA:83,2
DA:84,4
DA:87,291
DA:89,291
DA:92,363
DA:96,363
DA:98,726
DA:101,178
DA:103,178
DA:104,178
DA:107,9
DA:109,9
DA:110,9
DA:111,9
DA:114,6
DA:116,6
LF:44
LH:44
end_of_record
TN:
SF:/home/usr/Sources/SDK/IO.SDK/Body/Spacecraft/Engine.cpp
FN:18,_ZN2IO3SDK4Body10Spacecraft6EngineC2ERKNSt7__cxx1112basic_stringIcSt11char_traitsIcESaIcEEESB_RKNS2_8FuelTankERKNS0_4Math8Vector3DESI_dd
FN:47,_ZNK2IO3SDK4Body10Spacecraft6Engine11GetFuelFlowEv
FN:52,_ZNK2IO3SDK4Body10Spacecraft6Engine6GetISPEv
FN:57,_ZNK2IO3SDK4Body10Spacecraft6Engine7GetNameB5cxx11Ev
FN:62,_ZNK2IO3SDK4Body10Spacecraft6Engine14GetOrientationEv
FN:67,_ZNK2IO3SDK4Body10Spacecraft6Engine11GetPositionEv
FN:72,_ZNK2IO3SDK4Body10Spacecraft6Engine15GetSerialNumberB5cxx11Ev
FN:77,_ZNK2IO3SDK4Body10Spacecraft6Engine18GetRemainingDeltaVEv
FN:83,_ZNK2IO3SDK4Body10Spacecraft6Engine11GetFuelTankEv
FN:88,_ZNK2IO3SDK4Body10Spacecraft6Engine9GetThrustEv
FN:93,_ZNK2IO3SDK4Body10Spacecraft6EngineeqERKS3_
FN:98,_ZNK2IO3SDK4Body10Spacecraft6EngineneERKS3_
FN:103,_ZN2IO3SDK4Body10Spacecraft6Engine13ComputeDeltaVEddd
FN:108,_ZN2IO3SDK4Body10Spacecraft6Engine13ComputeDeltaTEdddd
FN:113,_ZN2IO3SDK4Body10Spacecraft6Engine13ComputeDeltaMEddd
FN:118,_ZN2IO3SDK4Body10Spacecraft6Engine4BurnERKNS0_4Time8TimeSpanE
FNDA:3,_ZNK2IO3SDK4Body10Spacecraft6Engine14GetOrientationEv
FNDA:0,_ZNK2IO3SDK4Body10Spacecraft6EngineneERKS3_
FNDA:0,_ZNK2IO3SDK4Body10Spacecraft6EngineeqERKS3_
FNDA:49,_ZNK2IO3SDK4Body10Spacecraft6Engine15GetSerialNumberB5cxx11Ev
FNDA:374,_ZNK2IO3SDK4Body10Spacecraft6Engine11GetFuelFlowEv
FNDA:3,_ZNK2IO3SDK4Body10Spacecraft6Engine11GetPositionEv
FNDA:80,_ZN2IO3SDK4Body10Spacecraft6Engine13ComputeDeltaMEddd
FNDA:62,_ZN2IO3SDK4Body10Spacecraft6EngineC2ERKNSt7__cxx1112basic_stringIcSt11char_traitsIcESaIcEEESB_RKNS2_8FuelTankERKNS0_4Math8Vector3DESI_dd
FNDA:83,_ZN2IO3SDK4Body10Spacecraft6Engine4BurnERKNS0_4Time8TimeSpanE
FNDA:1,_ZNK2IO3SDK4Body10Spacecraft6Engine18GetRemainingDeltaVEv
FNDA:250,_ZNK2IO3SDK4Body10Spacecraft6Engine9GetThrustEv
FNDA:83,_ZN2IO3SDK4Body10Spacecraft6Engine13ComputeDeltaVEddd
FNDA:1,_ZNK2IO3SDK4Body10Spacecraft6Engine6GetISPEv
FNDA:789,_ZNK2IO3SDK4Body10Spacecraft6Engine11GetFuelTankEv
FNDA:1,_ZNK2IO3SDK4Body10Spacecraft6Engine7GetNameB5cxx11Ev
FNDA:81,_ZN2IO3SDK4Body10Spacecraft6Engine13ComputeDeltaTEdddd
FNF:16
FNH:14
DA:18,62
DA:19,68
DA:21,62
DA:23,1
DA:26,61
DA:28,0
DA:31,61
DA:33,1
DA:36,60
DA:38,1
DA:40,59
DA:41,59
DA:42,59
DA:43,59
DA:44,59
DA:45,59
DA:47,374
DA:49,374
DA:52,1
DA:54,1
DA:57,1
DA:59,1
DA:62,3
DA:64,3
DA:67,3
DA:69,3
DA:72,49
DA:74,49
DA:77,1
DA:79,1
DA:80,1
DA:83,789
DA:85,789
DA:88,250
DA:90,250
DA:93,0
DA:95,0
DA:98,0
DA:100,0
DA:103,83
DA:105,83
DA:108,81
DA:110,81
DA:113,80
DA:115,80
DA:118,83
DA:120,83
DA:121,83
DA:123,0
DA:126,83
DA:128,83
LF:51
LH:45
end_of_record
TN:
SF:/home/usr/Sources/SDK/IO.SDK/Body/Spacecraft/FuelTank.cpp
FN:14,_ZN2IO3SDK4Body10Spacecraft8FuelTankC2ERKNSt7__cxx1112basic_stringIcSt11char_traitsIcESaIcEEERKNS2_10SpacecraftEdd
FN:41,_ZNK2IO3SDK4Body10Spacecraft8FuelTank13GetSpacecraftEv
FN:46,_ZNK2IO3SDK4Body10Spacecraft8FuelTank15GetSerialNumberB5cxx11Ev
FN:51,_ZNK2IO3SDK4Body10Spacecraft8FuelTank11GetQuantityEv
FN:56,_ZNK2IO3SDK4Body10Spacecraft8FuelTank11GetCapacityEv
FN:61,_ZNK2IO3SDK4Body10Spacecraft8FuelTank18GetInitialQuantityEv
FN:66,_ZN2IO3SDK4Body10Spacecraft8FuelTank18UpdateFuelQuantityEd
FN:81,_ZNK2IO3SDK4Body10Spacecraft8FuelTank7IsEmptyEv
FNDA:75,_ZN2IO3SDK4Body10Spacecraft8FuelTankC2ERKNSt7__cxx1112basic_stringIcSt11char_traitsIcESaIcEEERKNS2_10SpacecraftEdd
FNDA:753,_ZNK2IO3SDK4Body10Spacecraft8FuelTank7IsEmptyEv
FNDA:1044994,_ZNK2IO3SDK4Body10Spacecraft8FuelTank11GetQuantityEv
FNDA:88,_ZN2IO3SDK4Body10Spacecraft8FuelTank18UpdateFuelQuantityEd
FNDA:2,_ZNK2IO3SDK4Body10Spacecraft8FuelTank11GetCapacityEv
FNDA:2,_ZNK2IO3SDK4Body10Spacecraft8FuelTank18GetInitialQuantityEv
FNDA:74,_ZNK2IO3SDK4Body10Spacecraft8FuelTank15GetSerialNumberB5cxx11Ev
FNDA:41,_ZNK2IO3SDK4Body10Spacecraft8FuelTank13GetSpacecraftEv
FNF:8
FNH:8
DA:14,84
DA:16,75
DA:18,7
DA:21,68
DA:23,0
DA:26,68
DA:28,0
DA:31,68
DA:33,2
DA:36,66
DA:37,66
DA:38,66
DA:39,66
DA:41,41
DA:43,41
DA:46,74
DA:48,74
DA:51,1044994
DA:53,1044994
DA:56,2
DA:58,2
DA:61,2
DA:63,2
DA:66,88
DA:68,88
DA:70,1
DA:73,87
DA:75,1
DA:78,86
DA:79,86
DA:81,753
DA:83,753
LF:32
LH:30
end_of_record
TN:
SF:/home/usr/Sources/SDK/IO.SDK/Body/Spacecraft/Payload.cpp
FN:14,_ZN2IO3SDK4Body10Spacecraft7PayloadC2ERKNSt7__cxx1112basic_stringIcSt11char_traitsIcESaIcEEESB_d
FN:36,_ZNK2IO3SDK4Body10Spacecraft7Payload7GetMassEv
FN:41,_ZNK2IO3SDK4Body10Spacecraft7Payload7GetNameB5cxx11Ev
FN:46,_ZNK2IO3SDK4Body10Spacecraft7Payload15GetSerialNumberB5cxx11Ev
FNDA:1,_ZNK2IO3SDK4Body10Spacecraft7Payload7GetNameB5cxx11Ev
FNDA:3,_ZNK2IO3SDK4Body10Spacecraft7Payload15GetSerialNumberB5cxx11Ev
FNDA:3,_ZNK2IO3SDK4Body10Spacecraft7Payload7GetMassEv
FNDA:7,_ZN2IO3SDK4Body10Spacecraft7PayloadC2ERKNSt7__cxx1112basic_stringIcSt11char_traitsIcESaIcEEESB_d
FNF:4
FNH:4
DA:14,13
DA:16,7
DA:18,1
DA:21,6
DA:23,1
DA:26,5
DA:28,1
DA:31,4
DA:32,4
DA:33,4
DA:34,4
DA:36,3
DA:38,3
DA:41,1
DA:43,1
DA:46,3
DA:48,3
LF:17
LH:17
end_of_record
TN:
SF:/home/usr/Sources/SDK/IO.SDK/Body/Spacecraft/Spacecraft.cpp
FN:19,_ZN2IO3SDK4Body10Spacecraft10SpacecraftC2EiRKNSt7__cxx1112basic_stringIcSt11char_traitsIcESaIcEEEddSB_St10unique_ptrINS0_17OrbitalParameters17OrbitalParametersESt14default_deleteISE_EE
FN:31,_ZNK2IO3SDK4Body10Spacecraft10Spacecraft16GetMissionPrefixB5cxx11Ev
FN:36,_ZNK2IO3SDK4Body10Spacecraft10Spacecraft12GetFilesPathB5cxx11Ev
FN:41,_ZNK2IO3SDK4Body10Spacecraft10Spacecraft17WriteOrientationsERKSt6vectorIS4_INS0_17OrbitalParameters16StateOrientationESaIS6_EESaIS8_EE
FN:46,_ZNK2IO3SDK4Body10Spacecraft10Spacecraft14GetOrientationERKNS0_4Time3TDBERKNS4_8TimeSpanERKNS0_6Frames6FramesE
FN:51,_ZNK2IO3SDK4Body10Spacecraft10Spacecraft29WriteOrientationKernelCommentERKNSt7__cxx1112basic_stringIcSt11char_traitsIcESaIcEEE
FN:56,_ZNK2IO3SDK4Body10Spacecraft10Spacecraft28ReadOrientationKernelCommentB5cxx11Ev
FN:61,_ZNK2IO3SDK4Body10Spacecraft10Spacecraft29GetOrientationsCoverageWindowEv
FN:66,_ZNK2IO3SDK4Body10Spacecraft10Spacecraft8GetClockEv
FN:71,_ZNK2IO3SDK4Body10Spacecraft10Spacecraft14WriteEphemerisERKSt6vectorINS0_17OrbitalParameters11StateVectorESaIS6_EE
FN:76,_ZNK2IO3SDK4Body10Spacecraft10Spacecraft13ReadEphemerisERKNS0_6Frames6FramesENS0_15AberrationsEnumERKNS0_4Time3TDBERKNS1_13CelestialBodyE
FN:81,_ZNK2IO3SDK4Body10Spacecraft10Spacecraft26GetEphemerisCoverageWindowEv
FN:86,_ZNK2IO3SDK4Body10Spacecraft10Spacecraft27WriteEphemerisKernelCommentERKNSt7__cxx1112basic_stringIcSt11char_traitsIcESaIcEEE
FN:91,_ZNK2IO3SDK4Body10Spacecraft10Spacecraft26ReadEphemerisKernelCommentB5cxx11Ev
FN:96,_ZN2IO3SDK4Body10Spacecraft10Spacecraft24AddCircularFOVInstrumentEtRKNSt7__cxx1112basic_stringIcSt11char_traitsIcESaIcEEERKNS0_4Math8Vector3DESF_SF_d
FN:105,_ZN2IO3SDK4Body10Spacecraft10Spacecraft27AddRectangularFOVInstrumentEtRKNSt7__cxx1112basic_stringIcSt11char_traitsIcESaIcEEERKNS0_4Math8Vector3DESF_SF_dd
FN:114,_ZN2IO3SDK4Body10Spacecraft10Spacecraft26AddEllipticalFOVInstrumentEtRKNSt7__cxx1112basic_stringIcSt11char_traitsIcESaIcEEERKNS0_4Math8Vector3DESF_SF_dd
FN:123,_ZNK2IO3SDK4Body10Spacecraft10Spacecraft13GetInstrumentEi
FN:126,_ZZNK2IO3SDK4Body10Spacecraft10Spacecraft13GetInstrumentEiENKUlRKSt10unique_ptrINS0_11Instruments10InstrumentESt14default_deleteIS6_EEE_clESB_
FN:136,_ZN2IO3SDK4Body10Spacecraft10Spacecraft13HasInstrumentEt
FN:149,_ZN2IO3SDK4Body10Spacecraft10Spacecraft11AddFuelTankERKNSt7__cxx1112basic_stringIcSt11char_traitsIcESaIcEEEdd
FN:151,_ZZN2IO3SDK4Body10Spacecraft10Spacecraft11AddFuelTankERKNSt7__cxx1112basic_stringIcSt11char_traitsIcESaIcEEEddENKUlRKSt10unique_ptrINS2_8FuelTankESt14default_deleteISD_EEE_clESI_
FN:159,_ZN2IO3SDK4Body10Spacecraft10Spacecraft9AddEngineERKNSt7__cxx1112basic_stringIcSt11char_traitsIcESaIcEEESB_SB_RKNS0_4Math8Vector3DESF_dd
FN:161,_ZZN2IO3SDK4Body10Spacecraft10Spacecraft9AddEngineERKNSt7__cxx1112basic_stringIcSt11char_traitsIcESaIcEEESB_SB_RKNS0_4Math8Vector3DESF_ddENKUlRKSt10unique_ptrINS2_6EngineESt14default_deleteISH_EEE_clESM_
FN:166,_ZZN2IO3SDK4Body10Spacecraft10Spacecraft9AddEngineERKNSt7__cxx1112basic_stringIcSt11char_traitsIcESaIcEEESB_SB_RKNS0_4Math8Vector3DESF_ddENKUlRKSt10unique_ptrINS2_8FuelTankESt14default_deleteISH_EEE0_clESM_
FN:172,_ZN2IO3SDK4Body10Spacecraft10Spacecraft10AddPayloadERKNSt7__cxx1112basic_stringIcSt11char_traitsIcESaIcEEESB_d
FN:174,_ZZN2IO3SDK4Body10Spacecraft10Spacecraft10AddPayloadERKNSt7__cxx1112basic_stringIcSt11char_traitsIcESaIcEEESB_dENKUlRKSt10unique_ptrINS2_7PayloadESt14default_deleteISD_EEE_clESI_
FN:182,_ZNK2IO3SDK4Body10Spacecraft10Spacecraft7GetMassEv
FN:185,_ZZNK2IO3SDK4Body10Spacecraft10Spacecraft7GetMassEvENKUldRKSt10unique_ptrINS2_7PayloadESt14default_deleteIS5_EEE_clEdSA_
FN:185,_ZZNK2IO3SDK4Body10Spacecraft10Spacecraft7GetMassEvENKUldRKSt10unique_ptrINS2_8FuelTankESt14default_deleteIS5_EEE0_clEdSA_
FN:188,_ZNK2IO3SDK4Body10Spacecraft10Spacecraft9GetEngineERKNSt7__cxx1112basic_stringIcSt11char_traitsIcESaIcEEE
FN:190,_ZZNK2IO3SDK4Body10Spacecraft10Spacecraft9GetEngineERKNSt7__cxx1112basic_stringIcSt11char_traitsIcESaIcEEEENKUlRKSt10unique_ptrINS2_6EngineESt14default_deleteISD_EEE_clESI_
FN:200,_ZNK2IO3SDK4Body10Spacecraft10Spacecraft11GetFueltankERKNSt7__cxx1112basic_stringIcSt11char_traitsIcESaIcEEE
FN:202,_ZZNK2IO3SDK4Body10Spacecraft10Spacecraft11GetFueltankERKNSt7__cxx1112basic_stringIcSt11char_traitsIcESaIcEEEENKUlRKSt10unique_ptrINS2_8FuelTankESt14default_deleteISD_EEE_clESI_
FN:212,_ZN2IO3SDK4Body10Spacecraft10Spacecraft14ReleasePayloadERKNSt7__cxx1112basic_stringIcSt11char_traitsIcESaIcEEE
FN:219,_ZZN2IO3SDK4Body10Spacecraft10Spacecraft14ReleasePayloadERKNSt7__cxx1112basic_stringIcSt11char_traitsIcESaIcEEEENKUlRKSt10unique_ptrINS2_7PayloadESt14default_deleteISD_EEE_clESI_
FN:233,_ZNK2IO3SDK4Body10Spacecraft10Spacecraft19GetDryOperatingMassEv
FNDA:0,_ZZN2IO3SDK4Body10Spacecraft10Spacecraft10AddPayloadERKNSt7__cxx1112basic_stringIcSt11char_traitsIcESaIcEEESB_dENKUlRKSt10unique_ptrINS2_7PayloadESt14default_deleteISD_EEE_clESI_
FNDA:11,_ZN2IO3SDK4Body10Spacecraft10Spacecraft24AddCircularFOVInstrumentEtRKNSt7__cxx1112basic_stringIcSt11char_traitsIcESaIcEEERKNS0_4Math8Vector3DESF_SF_d
FNDA:4,_ZZNK2IO3SDK4Body10Spacecraft10Spacecraft11GetFueltankERKNSt7__cxx1112basic_stringIcSt11char_traitsIcESaIcEEEENKUlRKSt10unique_ptrINS2_8FuelTankESt14default_deleteISD_EEE_clESI_
FNDA:476,_ZNK2IO3SDK4Body10Spacecraft10Spacecraft12GetFilesPathB5cxx11Ev
FNDA:75,_ZN2IO3SDK4Body10Spacecraft10Spacecraft11AddFuelTankERKNSt7__cxx1112basic_stringIcSt11char_traitsIcESaIcEEEdd
FNDA:80,_ZNK2IO3SDK4Body10Spacecraft10Spacecraft19GetDryOperatingMassEv
FNDA:3,_ZZN2IO3SDK4Body10Spacecraft10Spacecraft11AddFuelTankERKNSt7__cxx1112basic_stringIcSt11char_traitsIcESaIcEEEddENKUlRKSt10unique_ptrINS2_8FuelTankESt14default_deleteISD_EEE_clESI_
FNDA:2,_ZZN2IO3SDK4Body10Spacecraft10Spacecraft14ReleasePayloadERKNSt7__cxx1112basic_stringIcSt11char_traitsIcESaIcEEEENKUlRKSt10unique_ptrINS2_7PayloadESt14default_deleteISD_EEE_clESI_
FNDA:1044740,_ZZNK2IO3SDK4Body10Spacecraft10Spacecraft7GetMassEvENKUldRKSt10unique_ptrINS2_8FuelTankESt14default_deleteIS5_EEE0_clEdSA_
FNDA:2,_ZZNK2IO3SDK4Body10Spacecraft10Spacecraft7GetMassEvENKUldRKSt10unique_ptrINS2_7PayloadESt14default_deleteIS5_EEE_clEdSA_
FNDA:1243533,_ZNK2IO3SDK4Body10Spacecraft10Spacecraft7GetMassEv
FNDA:6,_ZNK2IO3SDK4Body10Spacecraft10Spacecraft13GetInstrumentEi
FNDA:24,_ZNK2IO3SDK4Body10Spacecraft10Spacecraft29GetOrientationsCoverageWindowEv
FNDA:13,_ZN2IO3SDK4Body10Spacecraft10Spacecraft13HasInstrumentEt
FNDA:1,_ZNK2IO3SDK4Body10Spacecraft10Spacecraft16GetMissionPrefixB5cxx11Ev
FNDA:44,_ZZNK2IO3SDK4Body10Spacecraft10Spacecraft9GetEngineERKNSt7__cxx1112basic_stringIcSt11char_traitsIcESaIcEEEENKUlRKSt10unique_ptrINS2_6EngineESt14default_deleteISD_EEE_clESI_
FNDA:1,_ZN2IO3SDK4Body10Spacecraft10Spacecraft26AddEllipticalFOVInstrumentEtRKNSt7__cxx1112basic_stringIcSt11char_traitsIcESaIcEEERKNS0_4Math8Vector3DESF_SF_dd
FNDA:65,_ZZN2IO3SDK4Body10Spacecraft10Spacecraft9AddEngineERKNSt7__cxx1112basic_stringIcSt11char_traitsIcESaIcEEESB_SB_RKNS0_4Math8Vector3DESF_ddENKUlRKSt10unique_ptrINS2_8FuelTankESt14default_deleteISH_EEE0_clESM_
FNDA:1,_ZNK2IO3SDK4Body10Spacecraft10Spacecraft26ReadEphemerisKernelCommentB5cxx11Ev
FNDA:62,_ZN2IO3SDK4Body10Spacecraft10Spacecraft9AddEngineERKNSt7__cxx1112basic_stringIcSt11char_traitsIcESaIcEEESB_SB_RKNS0_4Math8Vector3DESF_dd
FNDA:2,_ZNK2IO3SDK4Body10Spacecraft10Spacecraft27WriteEphemerisKernelCommentERKNSt7__cxx1112basic_stringIcSt11char_traitsIcESaIcEEE
FNDA:868,_ZNK2IO3SDK4Body10Spacecraft10Spacecraft8GetClockEv
FNDA:1,_ZNK2IO3SDK4Body10Spacecraft10Spacecraft26GetEphemerisCoverageWindowEv
FNDA:1,_ZNK2IO3SDK4Body10Spacecraft10Spacecraft29WriteOrientationKernelCommentERKNSt7__cxx1112basic_stringIcSt11char_traitsIcESaIcEEE
FNDA:7,_ZNK2IO3SDK4Body10Spacecraft10Spacecraft13ReadEphemerisERKNS0_6Frames6FramesENS0_15AberrationsEnumERKNS0_4Time3TDBERKNS1_13CelestialBodyE
FNDA:41,_ZNK2IO3SDK4Body10Spacecraft10Spacecraft9GetEngineERKNSt7__cxx1112basic_stringIcSt11char_traitsIcESaIcEEE
FNDA:115,_ZN2IO3SDK4Body10Spacecraft10SpacecraftC2EiRKNSt7__cxx1112basic_stringIcSt11char_traitsIcESaIcEEEddSB_St10unique_ptrINS0_17OrbitalParameters17OrbitalParametersESt14default_deleteISE_EE
FNDA:6,_ZZNK2IO3SDK4Body10Spacecraft10Spacecraft13GetInstrumentEiENKUlRKSt10unique_ptrINS0_11Instruments10InstrumentESt14default_deleteIS6_EEE_clESB_
FNDA:23,_ZNK2IO3SDK4Body10Spacecraft10Spacecraft17WriteOrientationsERKSt6vectorIS4_INS0_17OrbitalParameters16StateOrientationESaIS6_EESaIS8_EE
FNDA:14,_ZNK2IO3SDK4Body10Spacecraft10Spacecraft14GetOrientationERKNS0_4Time3TDBERKNS4_8TimeSpanERKNS0_6Frames6FramesE
FNDA:1,_ZN2IO3SDK4Body10Spacecraft10Spacecraft27AddRectangularFOVInstrumentEtRKNSt7__cxx1112basic_stringIcSt11char_traitsIcESaIcEEERKNS0_4Math8Vector3DESF_SF_dd
FNDA:3,_ZZN2IO3SDK4Body10Spacecraft10Spacecraft9AddEngineERKNSt7__cxx1112basic_stringIcSt11char_traitsIcESaIcEEESB_SB_RKNS0_4Math8Vector3DESF_ddENKUlRKSt10unique_ptrINS2_6EngineESt14default_deleteISH_EEE_clESM_
FNDA:1,_ZNK2IO3SDK4Body10Spacecraft10Spacecraft28ReadOrientationKernelCommentB5cxx11Ev
FNDA:3,_ZN2IO3SDK4Body10Spacecraft10Spacecraft10AddPayloadERKNSt7__cxx1112basic_stringIcSt11char_traitsIcESaIcEEESB_d
FNDA:22,_ZNK2IO3SDK4Body10Spacecraft10Spacecraft14WriteEphemerisERKSt6vectorINS0_17OrbitalParameters11StateVectorESaIS6_EE
FNDA:4,_ZNK2IO3SDK4Body10Spacecraft10Spacecraft11GetFueltankERKNSt7__cxx1112basic_stringIcSt11char_traitsIcESaIcEEE
FNDA:3,_ZN2IO3SDK4Body10Spacecraft10Spacecraft14ReleasePayloadERKNSt7__cxx1112basic_stringIcSt11char_traitsIcESaIcEEE
FNF:37
FNH:36
DA:19,115
DA:20,1
DA:21,114
DA:22,228
DA:23,114
DA:24,114
DA:25,114
DA:26,114
DA:27,801
DA:29,114
DA:31,1
DA:33,1
DA:36,476
DA:38,476
DA:41,23
DA:43,23
DA:44,23
DA:46,14
DA:48,14
DA:51,1
DA:53,1
DA:54,1
DA:56,1
DA:58,1
DA:61,24
DA:63,24
DA:66,868
DA:68,868
DA:71,22
DA:73,22
DA:76,7
DA:78,7
DA:81,1
DA:83,1
DA:86,2
DA:88,2
DA:89,1
DA:91,1
DA:93,1
DA:96,11
DA:98,11
DA:100,1
DA:102,10
DA:103,9
DA:105,1
DA:107,1
DA:109,0
DA:111,1
DA:112,1
DA:114,1
DA:116,1
DA:118,0
DA:120,1
DA:121,1
DA:123,6
DA:126,12
DA:128,6
DA:130,1
DA:133,5
DA:136,13
DA:138,13
DA:140,1
DA:142,1
DA:146,12
DA:149,75
DA:151,78
DA:153,0
DA:156,75
DA:157,66
DA:159,62
DA:161,65
DA:163,0
DA:166,127
DA:167,62
DA:169,62
DA:170,59
DA:172,3
DA:174,3
DA:176,0
DA:179,3
DA:180,3
DA:182,1243533
DA:184,1243533
DA:185,2288275
DA:188,41
DA:190,85
DA:192,41
DA:194,0
DA:197,41
DA:200,4
DA:202,8
DA:204,4
DA:206,0
DA:209,4
DA:212,3
DA:214,3
DA:216,1
DA:219,4
DA:220,2
DA:222,1
DA:225,1
DA:226,1
DA:233,80
DA:235,80
LF:104
LH:97
end_of_record
TN:
SF:/home/usr/Sources/SDK/IO.SDK/Body/Spacecraft/Spacecraft.h
FN:96,_ZN2IO3SDK4Body10Spacecraft10SpacecraftD2Ev
FN:96,_ZN2IO3SDK4Body10Spacecraft10SpacecraftD0Ev
FNDA:114,_ZN2IO3SDK4Body10Spacecraft10SpacecraftD2Ev
FNDA:0,_ZN2IO3SDK4Body10Spacecraft10SpacecraftD0Ev
FNF:2
FNH:1
DA:96,114
LF:1
LH:1
end_of_record
TN:
SF:/home/usr/Sources/SDK/IO.SDK/Constraint.cpp
FN:21,_ZN2IO3SDK10ConstraintC2ERKNSt7__cxx1112basic_stringIcSt11char_traitsIcESaIcEEE
FN:25,_ZNK2IO3SDK10Constraint11ToCharArrayEv
FN:30,_ZN2IO3SDK10Constraint11GreaterThanEv
FN:35,_ZN2IO3SDK10Constraint9LowerThanEv
FNDA:10,_ZNK2IO3SDK10Constraint11ToCharArrayEv
FNDA:35,_ZN2IO3SDK10ConstraintC2ERKNSt7__cxx1112basic_stringIcSt11char_traitsIcESaIcEEE
FNDA:8,_ZN2IO3SDK10Constraint9LowerThanEv
FNDA:2,_ZN2IO3SDK10Constraint11GreaterThanEv
FNF:4
FNH:4
DA:21,35
DA:23,35
DA:25,10
DA:27,10
DA:30,2
DA:32,2
DA:35,8
DA:37,8
LF:8
LH:8
end_of_record
TN:
SF:/home/usr/Sources/SDK/IO.SDK/Coordinate.cpp
FN:25,_ZN2IO3SDK10CoordinateC2ERKNSt7__cxx1112basic_stringIcSt11char_traitsIcESaIcEEE
FN:29,_ZNK2IO3SDK10Coordinate11ToCharArrayEv
FN:34,_ZN2IO3SDK10Coordinate8AltitudeEv
FN:39,_ZN2IO3SDK10Coordinate1XEv
FN:44,_ZN2IO3SDK10Coordinate1YEv
FN:49,_ZN2IO3SDK10Coordinate1ZEv
FN:54,_ZN2IO3SDK10Coordinate9LongitudeEv
FN:59,_ZN2IO3SDK10Coordinate8LatitudeEv
FN:64,_ZN2IO3SDK10Coordinate6RadiusEv
FN:69,_ZN2IO3SDK10Coordinate5RangeEv
FN:74,_ZN2IO3SDK10Coordinate14RightAscensionEv
FN:79,_ZN2IO3SDK10Coordinate11DeclinationEv
FN:84,_ZN2IO3SDK10Coordinate10ColatitudeEv
FNDA:1,_ZN2IO3SDK10Coordinate6RadiusEv
FNDA:1,_ZN2IO3SDK10Coordinate14RightAscensionEv
FNDA:1,_ZN2IO3SDK10Coordinate1XEv
FNDA:1,_ZN2IO3SDK10Coordinate1ZEv
FNDA:11,_ZNK2IO3SDK10Coordinate11ToCharArrayEv
FNDA:1,_ZN2IO3SDK10Coordinate8LatitudeEv
FNDA:1,_ZN2IO3SDK10Coordinate11DeclinationEv
FNDA:1,_ZN2IO3SDK10Coordinate5RangeEv
FNDA:55,_ZN2IO3SDK10CoordinateC2ERKNSt7__cxx1112basic_stringIcSt11char_traitsIcESaIcEEE
FNDA:1,_ZN2IO3SDK10Coordinate1YEv
FNDA:1,_ZN2IO3SDK10Coordinate9LongitudeEv
FNDA:1,_ZN2IO3SDK10Coordinate8AltitudeEv
FNDA:1,_ZN2IO3SDK10Coordinate10ColatitudeEv
FNF:13
FNH:13
DA:25,55
DA:27,55
DA:29,11
DA:31,11
DA:34,1
DA:36,1
DA:39,1
DA:41,1
DA:44,1
DA:46,1
DA:49,1
DA:51,1
DA:54,1
DA:56,1
DA:59,1
DA:61,1
DA:64,1
DA:66,1
DA:69,1
DA:71,1
DA:74,1
DA:76,1
DA:79,1
DA:81,1
DA:84,1
DA:86,1
LF:26
LH:26
end_of_record
TN:
SF:/home/usr/Sources/SDK/IO.SDK/CoordinateSystem.cpp
FN:21,_ZN2IO3SDK16CoordinateSystemC2ERKNSt7__cxx1112basic_stringIcSt11char_traitsIcESaIcEEE
FN:25,_ZNK2IO3SDK16CoordinateSystem11ToCharArrayEv
FN:30,_ZN2IO3SDK16CoordinateSystem11RectangularEv
FN:34,_ZN2IO3SDK16CoordinateSystem11LatitudinalEv
FN:38,_ZN2IO3SDK16CoordinateSystem6RA_DECEv
FN:42,_ZN2IO3SDK16CoordinateSystem9SphericalEv
FN:46,_ZN2IO3SDK16CoordinateSystem11CylindricalEv
FN:50,_ZN2IO3SDK16CoordinateSystem8GeodeticEv
FN:54,_ZN2IO3SDK16CoordinateSystem14PlanetographicEv
FNDA:1,_ZN2IO3SDK16CoordinateSystem11LatitudinalEv
FNDA:1,_ZN2IO3SDK16CoordinateSystem11CylindricalEv
FNDA:2,_ZN2IO3SDK16CoordinateSystem14PlanetographicEv
FNDA:35,_ZN2IO3SDK16CoordinateSystemC2ERKNSt7__cxx1112basic_stringIcSt11char_traitsIcESaIcEEE
FNDA:1,_ZN2IO3SDK16CoordinateSystem6RA_DECEv
FNDA:1,_ZN2IO3SDK16CoordinateSystem8GeodeticEv
FNDA:8,_ZNK2IO3SDK16CoordinateSystem11ToCharArrayEv
FNDA:1,_ZN2IO3SDK16CoordinateSystem11RectangularEv
FNDA:1,_ZN2IO3SDK16CoordinateSystem9SphericalEv
FNF:9
FNH:9
DA:21,35
DA:23,35
DA:25,8
DA:27,8
DA:30,1
DA:32,1
DA:34,1
DA:36,1
DA:38,1
DA:40,1
DA:42,1
DA:44,1
DA:46,1
DA:48,1
DA:50,1
DA:52,1
DA:54,2
DA:56,2
LF:18
LH:18
end_of_record
TN:
SF:/home/usr/Sources/SDK/IO.SDK/Coordinates/AzimuthRange.cpp
FN:15,_ZN2IO3SDK11Coordinates12AzimuthRangeC2Edd
FN:35,_ZNK2IO3SDK11Coordinates12AzimuthRange9IsInRangeEd
FN:65,_ZNK2IO3SDK11Coordinates12AzimuthRange13IsIntersectedERKS2_
FNDA:7,_ZNK2IO3SDK11Coordinates12AzimuthRange13IsIntersectedERKS2_
FNDA:32,_ZNK2IO3SDK11Coordinates12AzimuthRange9IsInRangeEd
FNDA:20,_ZN2IO3SDK11Coordinates12AzimuthRangeC2Edd
FNF:3
FNH:3
DA:15,20
DA:17,20
DA:19,1
DA:22,20
DA:24,0
DA:28,20
DA:29,20
DA:31,5
DA:33,20
DA:35,32
DA:37,32
DA:38,32
DA:40,15
DA:43,32
DA:45,32
DA:47,12
DA:50,32
DA:52,32
DA:54,0
DA:57,32
DA:59,16
DA:62,16
DA:65,7
DA:67,7
LF:24
LH:22
end_of_record
TN:
SF:/home/usr/Sources/SDK/IO.SDK/Coordinates/AzimuthRange.h
FN:46,_ZNK2IO3SDK11Coordinates12AzimuthRange8GetStartEv
FN:53,_ZNK2IO3SDK11Coordinates12AzimuthRange6GetEndEv
FN:60,_ZNK2IO3SDK11Coordinates12AzimuthRange7GetSpanEv
FNDA:4,_ZNK2IO3SDK11Coordinates12AzimuthRange8GetStartEv
FNDA:4,_ZNK2IO3SDK11Coordinates12AzimuthRange6GetEndEv
FNDA:4,_ZNK2IO3SDK11Coordinates12AzimuthRange7GetSpanEv
FNF:3
FNH:3
DA:46,4
DA:53,4
DA:60,4
LF:3
LH:3
end_of_record
TN:
SF:/home/usr/Sources/SDK/IO.SDK/Coordinates/Cylindrical.h
FN:32,_ZN2IO3SDK11Coordinates11CylindricalC2Eddd
FN:41,_ZNK2IO3SDK11Coordinates11Cylindrical9GetRadiusEv
FN:48,_ZNK2IO3SDK11Coordinates11Cylindrical12GetLongitudeEv
FN:55,_ZNK2IO3SDK11Coordinates11Cylindrical4GetZEv
FNDA:1,_ZNK2IO3SDK11Coordinates11Cylindrical4GetZEv
FNDA:1,_ZNK2IO3SDK11Coordinates11Cylindrical12GetLongitudeEv
FNDA:1,_ZNK2IO3SDK11Coordinates11Cylindrical9GetRadiusEv
FNDA:1,_ZN2IO3SDK11Coordinates11CylindricalC2Eddd
FNF:4
FNH:4
DA:32,1
DA:34,1
DA:41,1
DA:48,1
DA:55,1
LF:5
LH:5
end_of_record
TN:
SF:/home/usr/Sources/SDK/IO.SDK/Coordinates/Geodetic.h
FN:33,_ZN2IO3SDK11Coordinates8GeodeticC2Eddd
FN:43,_ZNK2IO3SDK11Coordinates8Geodetic11GetAltitudeEv
FN:50,_ZNK2IO3SDK11Coordinates8Geodetic12GetLongitudeEv
FN:57,_ZNK2IO3SDK11Coordinates8Geodetic11GetLatitudeEv
FNDA:207,_ZNK2IO3SDK11Coordinates8Geodetic12GetLongitudeEv
FNDA:235,_ZNK2IO3SDK11Coordinates8Geodetic11GetLatitudeEv
FNDA:32,_ZN2IO3SDK11Coordinates8GeodeticC2Eddd
FNDA:176,_ZNK2IO3SDK11Coordinates8Geodetic11GetAltitudeEv
FNF:4
FNH:4
DA:33,32
DA:36,32
DA:43,176
DA:50,207
DA:57,235
LF:5
LH:5
end_of_record
TN:
SF:/home/usr/Sources/SDK/IO.SDK/Coordinates/HorizontalCoordinates.h
FN:32,_ZN2IO3SDK11Coordinates21HorizontalCoordinatesC2Eddd
FN:36,_ZN2IO3SDK11Coordinates21HorizontalCoordinatesaSERKS2_
FN:57,_ZNK2IO3SDK11Coordinates21HorizontalCoordinates11GetAltitudeEv
FN:64,_ZNK2IO3SDK11Coordinates21HorizontalCoordinates10GetAzimuthEv
FN:71,_ZNK2IO3SDK11Coordinates21HorizontalCoordinates12GetElevationEv
FNDA:3,_ZN2IO3SDK11Coordinates21HorizontalCoordinatesaSERKS2_
FNDA:5,_ZNK2IO3SDK11Coordinates21HorizontalCoordinates10GetAzimuthEv
FNDA:5,_ZNK2IO3SDK11Coordinates21HorizontalCoordinates11GetAltitudeEv
FNDA:5,_ZNK2IO3SDK11Coordinates21HorizontalCoordinates12GetElevationEv
FNDA:5,_ZN2IO3SDK11Coordinates21HorizontalCoordinatesC2Eddd
FNF:5
FNH:5
DA:32,5
DA:34,5
DA:36,3
DA:38,3
DA:40,3
DA:41,3
DA:42,3
DA:45,3
DA:57,5
DA:64,5
DA:71,5
LF:11
LH:11
end_of_record
TN:
SF:/home/usr/Sources/SDK/IO.SDK/Coordinates/Latitudinal.h
FN:32,_ZN2IO3SDK11Coordinates11LatitudinalC2Eddd
FN:42,_ZNK2IO3SDK11Coordinates11Latitudinal9GetRadiusEv
FN:49,_ZNK2IO3SDK11Coordinates11Latitudinal12GetLongitudeEv
FN:56,_ZNK2IO3SDK11Coordinates11Latitudinal11GetLatitudeEv
FNDA:1,_ZN2IO3SDK11Coordinates11LatitudinalC2Eddd
FNDA:1,_ZNK2IO3SDK11Coordinates11Latitudinal12GetLongitudeEv
FNDA:1,_ZNK2IO3SDK11Coordinates11Latitudinal9GetRadiusEv
FNDA:1,_ZNK2IO3SDK11Coordinates11Latitudinal11GetLatitudeEv
FNF:4
FNH:4
DA:32,1
DA:35,1
DA:42,1
DA:49,1
DA:56,1
LF:5
LH:5
end_of_record
TN:
SF:/home/usr/Sources/SDK/IO.SDK/Coordinates/Planetographic.h
FN:32,_ZN2IO3SDK11Coordinates14PlanetographicC2Eddd
FN:41,_ZNK2IO3SDK11Coordinates14Planetographic11GetAltitudeEv
FN:48,_ZNK2IO3SDK11Coordinates14Planetographic12GetLongitudeEv
FN:55,_ZNK2IO3SDK11Coordinates14Planetographic11GetLatitudeEv
FNDA:3,_ZNK2IO3SDK11Coordinates14Planetographic11GetLatitudeEv
FNDA:3,_ZNK2IO3SDK11Coordinates14Planetographic12GetLongitudeEv
FNDA:3,_ZN2IO3SDK11Coordinates14PlanetographicC2Eddd
FNDA:3,_ZNK2IO3SDK11Coordinates14Planetographic11GetAltitudeEv
FNF:4
FNH:4
DA:32,3
DA:35,3
DA:41,3
DA:48,3
DA:55,3
LF:5
LH:5
end_of_record
TN:
SF:/home/usr/Sources/SDK/IO.SDK/Coordinates/RADec.h
FN:33,_ZN2IO3SDK11Coordinates5RADecC2Eddd
FN:43,_ZNK2IO3SDK11Coordinates5RADec8GetRangeEv
FN:50,_ZNK2IO3SDK11Coordinates5RADec5GetRAEv
FN:57,_ZNK2IO3SDK11Coordinates5RADec6GetDecEv
FNDA:3,_ZNK2IO3SDK11Coordinates5RADec8GetRangeEv
FNDA:3,_ZNK2IO3SDK11Coordinates5RADec5GetRAEv
FNDA:3,_ZN2IO3SDK11Coordinates5RADecC2Eddd
FNDA:3,_ZNK2IO3SDK11Coordinates5RADec6GetDecEv
FNF:4
FNH:4
DA:33,3
DA:36,3
DA:43,3
DA:50,3
DA:57,3
LF:5
LH:5
end_of_record
TN:
SF:/home/usr/Sources/SDK/IO.SDK/Coordinates/Rectangular.h
FN:32,_ZN2IO3SDK11Coordinates11RectangularC2Eddd
FN:42,_ZNK2IO3SDK11Coordinates11Rectangular4GetXEv
FN:49,_ZNK2IO3SDK11Coordinates11Rectangular4GetYEv
FN:56,_ZNK2IO3SDK11Coordinates11Rectangular4GetZEv
FNDA:1,_ZNK2IO3SDK11Coordinates11Rectangular4GetYEv
FNDA:1,_ZN2IO3SDK11Coordinates11RectangularC2Eddd
FNDA:1,_ZNK2IO3SDK11Coordinates11Rectangular4GetZEv
FNDA:1,_ZNK2IO3SDK11Coordinates11Rectangular4GetXEv
FNF:4
FNH:4
DA:32,1
DA:35,1
DA:42,1
DA:49,1
DA:56,1
LF:5
LH:5
end_of_record
TN:
SF:/home/usr/Sources/SDK/IO.SDK/Coordinates/Spherical.h
FN:32,_ZN2IO3SDK11Coordinates9SphericalC2Eddd
FN:41,_ZNK2IO3SDK11Coordinates9Spherical9GetRadiusEv
FN:48,_ZNK2IO3SDK11Coordinates9Spherical12GetLongitudeEv
FN:55,_ZNK2IO3SDK11Coordinates9Spherical13GetColatitudeEv
FNDA:1,_ZNK2IO3SDK11Coordinates9Spherical13GetColatitudeEv
FNDA:1,_ZNK2IO3SDK11Coordinates9Spherical9GetRadiusEv
FNDA:1,_ZN2IO3SDK11Coordinates9SphericalC2Eddd
FNDA:1,_ZNK2IO3SDK11Coordinates9Spherical12GetLongitudeEv
FNF:4
FNH:4
DA:32,1
DA:34,1
DA:41,1
DA:48,1
DA:55,1
LF:5
LH:5
end_of_record
TN:
SF:/home/usr/Sources/SDK/IO.SDK/Coordinates/SurfaceCoordinates.cpp
FN:13,_ZN2IO3SDK11Coordinates18SurfaceCoordinatesC2Emm
FN:20,_ZN2IO3SDK11Coordinates18SurfaceCoordinatesC2ERKS2_
FN:36,_ZN2IO3SDK11Coordinates18SurfaceCoordinatesaSERKS2_
FN:62,_ZN2IO3SDK11Coordinates18SurfaceCoordinates8AddPointERKNS0_4Math8Vector3DE
FN:67,_ZN2IO3SDK11Coordinates18SurfaceCoordinates9AddNormalERKNS0_4Math8Vector3DE
FNDA:3,_ZN2IO3SDK11Coordinates18SurfaceCoordinates8AddPointERKNS0_4Math8Vector3DE
FNDA:3,_ZN2IO3SDK11Coordinates18SurfaceCoordinates9AddNormalERKNS0_4Math8Vector3DE
FNDA:1,_ZN2IO3SDK11Coordinates18SurfaceCoordinatesaSERKS2_
FNDA:4,_ZN2IO3SDK11Coordinates18SurfaceCoordinatesC2Emm
FNDA:1,_ZN2IO3SDK11Coordinates18SurfaceCoordinatesC2ERKS2_
FNF:5
FNH:5
DA:13,4
DA:15,4
DA:16,4
DA:17,4
DA:18,4
DA:20,1
DA:22,1
DA:23,1
DA:25,1
DA:27,0
DA:30,1
DA:32,0
DA:34,1
DA:36,1
DA:38,1
DA:40,0
DA:43,1
DA:44,1
DA:46,1
DA:47,1
DA:49,2
DA:51,1
DA:54,2
DA:56,1
DA:59,1
DA:62,3
DA:64,3
DA:65,3
DA:67,3
DA:69,3
DA:70,3
LF:31
LH:28
end_of_record
TN:
SF:/home/usr/Sources/SDK/IO.SDK/Coordinates/SurfaceCoordinates.h
FN:53,_ZNK2IO3SDK11Coordinates18SurfaceCoordinates16GetSurfacePointsEv
FN:63,_ZNK2IO3SDK11Coordinates18SurfaceCoordinates17GetSurfaceNormalsEv
FNDA:20,_ZNK2IO3SDK11Coordinates18SurfaceCoordinates17GetSurfaceNormalsEv
FNDA:16,_ZNK2IO3SDK11Coordinates18SurfaceCoordinates16GetSurfacePointsEv
FNF:2
FNH:2
DA:53,16
DA:55,16
DA:63,20
DA:65,20
LF:4
LH:4
end_of_record
TN:
SF:/home/usr/Sources/SDK/IO.SDK/Coordinates/SurfaceInterceptPoint.h
FN:39,_ZN2IO3SDK11Coordinates21SurfaceInterceptPointC2ERKNS0_4Math8Vector3DES6_RKNS0_4Time3TDBE
FN:42,_ZN2IO3SDK11Coordinates21SurfaceInterceptPointC2ERKS2_
FN:49,_ZNK2IO3SDK11Coordinates21SurfaceInterceptPoint17GetInterceptPointEv
FN:59,_ZNK2IO3SDK11Coordinates21SurfaceInterceptPoint31GetObserverInterceptPointVectorEv
FN:69,_ZNK2IO3SDK11Coordinates21SurfaceInterceptPoint17GetInterceptEpochEv
FNDA:1,_ZN2IO3SDK11Coordinates21SurfaceInterceptPointC2ERKS2_
FNDA:8,_ZNK2IO3SDK11Coordinates21SurfaceInterceptPoint17GetInterceptPointEv
FNDA:2,_ZN2IO3SDK11Coordinates21SurfaceInterceptPointC2ERKNS0_4Math8Vector3DES6_RKNS0_4Time3TDBE
FNDA:8,_ZNK2IO3SDK11Coordinates21SurfaceInterceptPoint31GetObserverInterceptPointVectorEv
FNDA:2,_ZNK2IO3SDK11Coordinates21SurfaceInterceptPoint17GetInterceptEpochEv
FNF:5
FNH:5
DA:39,2
DA:40,2
DA:41,2
DA:42,1
DA:49,8
DA:51,8
DA:59,8
DA:61,8
DA:69,2
DA:71,2
LF:10
LH:10
end_of_record
TN:
SF:/home/usr/Sources/SDK/IO.SDK/DataPoolMonitoring.cpp
FN:15,_ZN2IO3SDK18DataPoolMonitoring8InstanceEv
FN:20,_ZNK2IO3SDK18DataPoolMonitoring17GetStringPropertyERKNSt7__cxx1112basic_stringIcSt11char_traitsIcESaIcEEEi
FN:41,_ZNK2IO3SDK18DataPoolMonitoring18GetIntegerPropertyERKNSt7__cxx1112basic_stringIcSt11char_traitsIcESaIcEEEi
FN:60,_ZNK2IO3SDK18DataPoolMonitoring17GetDoublePropertyERKNSt7__cxx1112basic_stringIcSt11char_traitsIcESaIcEEEi
FNDA:11,_ZNK2IO3SDK18DataPoolMonitoring17GetDoublePropertyERKNSt7__cxx1112basic_stringIcSt11char_traitsIcESaIcEEEi
FNDA:17,_ZNK2IO3SDK18DataPoolMonitoring18GetIntegerPropertyERKNSt7__cxx1112basic_stringIcSt11char_traitsIcESaIcEEEi
FNDA:22,_ZNK2IO3SDK18DataPoolMonitoring17GetStringPropertyERKNSt7__cxx1112basic_stringIcSt11char_traitsIcESaIcEEEi
FNDA:50,_ZN2IO3SDK18DataPoolMonitoring8InstanceEv
FNF:4
FNH:4
DA:15,50
DA:17,50
DA:20,22
DA:22,22
DA:24,22
DA:26,22
DA:28,22
DA:30,22
DA:32,44
DA:34,22
DA:38,44
DA:41,17
DA:43,17
DA:44,17
DA:45,17
DA:47,17
DA:49,17
DA:51,38
DA:53,21
DA:56,17
DA:57,34
DA:60,11
DA:62,11
DA:63,11
DA:64,11
DA:66,11
DA:68,11
DA:70,38
DA:72,27
DA:75,11
DA:76,22
LF:31
LH:31
end_of_record
TN:
SF:/home/usr/Sources/SDK/IO.SDK/Exceptions/InvalidArgumentException.cpp
FN:13,_ZN2IO3SDK9Exception24InvalidArgumentExceptionC2ERKNSt7__cxx1112basic_stringIcSt11char_traitsIcESaIcEEE
FNDA:21,_ZN2IO3SDK9Exception24InvalidArgumentExceptionC2ERKNSt7__cxx1112basic_stringIcSt11char_traitsIcESaIcEEE
FNF:1
FNH:1
DA:13,21
DA:16,21
LF:2
LH:2
end_of_record
TN:
SF:/home/usr/Sources/SDK/IO.SDK/Exceptions/PropagatorException.cpp
FN:13,_ZN2IO3SDK9Exception19PropagatorExceptionC2ERKNSt7__cxx1112basic_stringIcSt11char_traitsIcESaIcEEE
FNDA:1,_ZN2IO3SDK9Exception19PropagatorExceptionC2ERKNSt7__cxx1112basic_stringIcSt11char_traitsIcESaIcEEE
FNF:1
FNH:1
DA:13,1
DA:16,1
LF:2
LH:2
end_of_record
TN:
SF:/home/usr/Sources/SDK/IO.SDK/Exceptions/SDKException.cpp
FN:12,_ZN2IO3SDK9Exception12SDKExceptionC2ERKNSt7__cxx1112basic_stringIcSt11char_traitsIcESaIcEEE
FN:15,_ZNK2IO3SDK9Exception12SDKException4whatEv
FNDA:3,_ZNK2IO3SDK9Exception12SDKException4whatEv
FNDA:340874,_ZN2IO3SDK9Exception12SDKExceptionC2ERKNSt7__cxx1112basic_stringIcSt11char_traitsIcESaIcEEE
FNF:2
FNH:2
DA:12,340874
DA:14,340874
DA:15,3
DA:17,3
LF:4
LH:4
end_of_record
TN:
SF:/home/usr/Sources/SDK/IO.SDK/Exceptions/TooEarlyManeuverException.cpp
FN:13,_ZN2IO3SDK9Exception25TooEarlyManeuverExceptionC2ERKNSt7__cxx1112basic_stringIcSt11char_traitsIcESaIcEEE
FNDA:340843,_ZN2IO3SDK9Exception25TooEarlyManeuverExceptionC2ERKNSt7__cxx1112basic_stringIcSt11char_traitsIcESaIcEEE
FNF:1
FNH:1
DA:13,340843
DA:16,340843
LF:2
LH:2
end_of_record
TN:
SF:/home/usr/Sources/SDK/IO.SDK/Frames/BodyFixedFrame.cpp
FN:14,_ZN2IO3SDK6Frames15BodyFixedFramesC2ERKNSt7__cxx1112basic_stringIcSt11char_traitsIcESaIcEEE
FNDA:311,_ZN2IO3SDK6Frames15BodyFixedFramesC2ERKNSt7__cxx1112basic_stringIcSt11char_traitsIcESaIcEEE
FNF:1
FNH:1
DA:14,311
DA:16,311
LF:2
LH:2
end_of_record
TN:
SF:/home/usr/Sources/SDK/IO.SDK/Frames/FrameFile.cpp
FN:16,_ZN2IO3SDK6Frames9FrameFileC2ERKNSt7__cxx1112basic_stringIcSt11char_traitsIcESaIcEEESA_
FN:35,_ZN2IO3SDK6Frames9FrameFileD0Ev
FN:35,_ZN2IO3SDK6Frames9FrameFileD2Ev
FN:40,_ZNK2IO3SDK6Frames9FrameFile7GetNameB5cxx11Ev
FNDA:16,_ZNK2IO3SDK6Frames9FrameFile7GetNameB5cxx11Ev
FNDA:156,_ZN2IO3SDK6Frames9FrameFileD2Ev
FNDA:156,_ZN2IO3SDK6Frames9FrameFileC2ERKNSt7__cxx1112basic_stringIcSt11char_traitsIcESaIcEEESA_
FNDA:0,_ZN2IO3SDK6Frames9FrameFileD0Ev
FNF:4
FNH:3
DA:16,156
DA:18,468
DA:19,156
DA:21,156
DA:23,0
DA:27,156
DA:29,0
DA:30,0
DA:31,0
DA:33,156
DA:35,156
DA:37,156
DA:38,156
DA:40,16
DA:42,16
LF:15
LH:11
end_of_record
TN:
SF:/home/usr/Sources/SDK/IO.SDK/Frames/Frames.cpp
FN:14,_ZN2IO3SDK6Frames6FramesC2ERKNSt7__cxx1112basic_stringIcSt11char_traitsIcESaIcEEE
FN:18,_ZNK2IO3SDK6Frames6Frames11ToCharArrayEv
FN:23,_ZNK2IO3SDK6Frames6FrameseqERKS2_
FN:28,_ZNK2IO3SDK6Frames6FramesneERKS2_
FN:33,_ZNK2IO3SDK6Frames6FrameseqERS2_
FN:38,_ZNK2IO3SDK6Frames6FramesneERS2_
FN:43,_ZNK2IO3SDK6Frames6Frames7GetNameB5cxx11Ev
FN:48,_ZNK2IO3SDK6Frames6Frames10ToFrame6x6ERKS2_RKNS0_4Time3TDBE
FN:81,_ZNK2IO3SDK6Frames6Frames10ToFrame3x3ERKS2_RKNS0_4Time3TDBE
FN:114,_ZNK2IO3SDK6Frames6Frames15TransformVectorERKS2_RKNS0_4Math8Vector3DERKNS0_4Time3TDBE
FNDA:331,_ZNK2IO3SDK6Frames6FrameseqERKS2_
FNDA:331,_ZN2IO3SDK6Frames6FramesC2ERKNSt7__cxx1112basic_stringIcSt11char_traitsIcESaIcEEE
FNDA:2,_ZNK2IO3SDK6Frames6FramesneERKS2_
FNDA:622776,_ZNK2IO3SDK6Frames6FramesneERS2_
FNDA:100,_ZNK2IO3SDK6Frames6Frames15TransformVectorERKS2_RKNS0_4Math8Vector3DERKNS0_4Time3TDBE
FNDA:0,_ZNK2IO3SDK6Frames6FrameseqERS2_
FNDA:53,_ZNK2IO3SDK6Frames6Frames7GetNameB5cxx11Ev
FNDA:100,_ZNK2IO3SDK6Frames6Frames10ToFrame3x3ERKS2_RKNS0_4Time3TDBE
FNDA:773,_ZNK2IO3SDK6Frames6Frames11ToCharArrayEv
FNDA:168,_ZNK2IO3SDK6Frames6Frames10ToFrame6x6ERKS2_RKNS0_4Time3TDBE
FNF:10
FNH:9
DA:14,331
DA:16,331
DA:18,773
DA:20,773
DA:23,331
DA:25,331
DA:28,2
DA:30,2
DA:33,0
DA:35,0
DA:38,622776
DA:40,622776
DA:43,53
DA:45,53
DA:48,168
DA:51,168
DA:54,168
DA:56,1176
DA:58,1008
DA:61,1176
DA:63,7056
DA:65,6048
DA:69,168
DA:71,1176
DA:73,1008
DA:76,168
DA:78,336
DA:81,100
DA:84,100
DA:87,100
DA:89,400
DA:91,300
DA:94,400
DA:96,1200
DA:98,900
DA:102,100
DA:104,400
DA:106,300
DA:109,100
DA:111,200
DA:114,100
DA:116,200
DA:118,100
DA:119,100
DA:120,100
DA:123,400
DA:125,1200
DA:127,900
DA:132,100
DA:134,200
LF:50
LH:48
end_of_record
TN:
SF:/home/usr/Sources/SDK/IO.SDK/Frames/InertialFrames.cpp
FN:16,_ZN2IO3SDK6Frames14InertialFramesC2ERKNSt7__cxx1112basic_stringIcSt11char_traitsIcESaIcEEE
FN:20,_ZN2IO3SDK6Frames14InertialFrames7GetICRFEv
FN:25,_ZN2IO3SDK6Frames14InertialFrames8GalacticEv
FN:30,_ZN2IO3SDK6Frames14InertialFrames8EclipticEv
FNDA:1520,_ZN2IO3SDK6Frames14InertialFrames7GetICRFEv
FNDA:4,_ZN2IO3SDK6Frames14InertialFrames8EclipticEv
FNDA:15,_ZN2IO3SDK6Frames14InertialFramesC2ERKNSt7__cxx1112basic_stringIcSt11char_traitsIcESaIcEEE
FNDA:4,_ZN2IO3SDK6Frames14InertialFrames8GalacticEv
FNF:4
FNH:4
DA:16,15
DA:18,15
DA:20,1520
DA:22,1520
DA:25,4
DA:27,4
DA:30,4
DA:32,4
LF:8
LH:8
end_of_record
TN:
SF:/home/usr/Sources/SDK/IO.SDK/Frames/InstrumentFrameFile.cpp
FN:15,_ZN2IO3SDK6Frames19InstrumentFrameFileC2ERKNS0_11Instruments10InstrumentERKNS0_4Math8Vector3DE
FN:25,_ZN2IO3SDK6Frames19InstrumentFrameFile10BuildFrameEv
FNDA:11,_ZN2IO3SDK6Frames19InstrumentFrameFile10BuildFrameEv
FNDA:11,_ZN2IO3SDK6Frames19InstrumentFrameFileC2ERKNS0_11Instruments10InstrumentERKNS0_4Math8Vector3DE
FNF:2
FNH:2
DA:15,11
DA:17,11
DA:19,11
DA:20,11
DA:21,11
DA:23,11
DA:25,11
DA:27,11
DA:29,0
DA:30,0
DA:33,22
DA:34,33
DA:35,22
DA:36,22
DA:37,11
DA:39,11
DA:41,220
DA:43,209
DA:44,209
DA:46,33
DA:49,209
DA:50,209
DA:52,22
DA:55,209
DA:56,209
DA:58,11
DA:61,209
DA:62,209
DA:64,121
DA:66,121
DA:67,121
DA:69,11
DA:73,209
DA:74,209
DA:76,11
DA:79,209
DA:80,209
DA:82,11
DA:85,209
DA:86,209
DA:88,11
DA:91,209
DA:92,209
DA:94,11
DA:98,209
DA:102,11
DA:103,11
DA:105,11
DA:107,11
DA:108,11
LF:50
LH:48
end_of_record
TN:
SF:/home/usr/Sources/SDK/IO.SDK/Frames/SiteFrameFile.cpp
FN:18,_ZN2IO3SDK6Frames13SiteFrameFileC2ERKNS0_5Sites4SiteE
FN:28,_ZN2IO3SDK6Frames13SiteFrameFile10BuildFrameEv
FNDA:31,_ZN2IO3SDK6Frames13SiteFrameFile10BuildFrameEv
FNDA:31,_ZN2IO3SDK6Frames13SiteFrameFileC2ERKNS0_5Sites4SiteE
FNF:2
FNH:2
DA:18,31
DA:20,31
DA:22,31
DA:23,31
DA:24,31
DA:26,31
DA:28,31
DA:30,31
DA:32,31
DA:33,31
DA:36,62
DA:37,93
DA:38,62
DA:39,62
DA:40,31
DA:42,31
DA:44,682
DA:46,651
DA:47,651
DA:49,31
DA:52,651
DA:53,651
DA:55,93
DA:58,651
DA:59,651
DA:61,310
DA:63,310
DA:64,310
DA:66,31
DA:70,651
DA:71,651
DA:73,93
DA:76,651
DA:77,651
DA:79,31
DA:82,651
DA:83,651
DA:85,31
DA:88,651
DA:89,651
DA:91,31
DA:94,651
DA:98,31
DA:99,31
DA:101,31
DA:103,31
DA:104,31
LF:47
LH:47
end_of_record
TN:
SF:/home/usr/Sources/SDK/IO.SDK/Frames/SiteFramesLoader.cpp
FN:18,_ZN2IO3SDK6Frames16SiteFramesLoaderC2Ev
FNDA:5,_ZN2IO3SDK6Frames16SiteFramesLoaderC2Ev
FNF:1
FNH:1
DA:18,5
DA:20,5
DA:22,0
DA:25,35
DA:27,20
DA:29,5
LF:6
LH:5
end_of_record
TN:
SF:/home/usr/Sources/SDK/IO.SDK/Frames/SpacecraftFrameFile.cpp
FN:18,_ZN2IO3SDK6Frames19SpacecraftFrameFileC2ERKNS0_4Body10Spacecraft10SpacecraftE
FN:28,_ZN2IO3SDK6Frames19SpacecraftFrameFile10BuildFrameEv
FNDA:114,_ZN2IO3SDK6Frames19SpacecraftFrameFileC2ERKNS0_4Body10Spacecraft10SpacecraftE
FNDA:114,_ZN2IO3SDK6Frames19SpacecraftFrameFile10BuildFrameEv
FNF:2
FNH:2
DA:18,114
DA:20,114
DA:22,114
DA:23,114
DA:24,114
DA:26,114
DA:28,114
DA:30,114
DA:32,113
DA:33,113
DA:36,228
DA:37,342
DA:38,228
DA:39,228
DA:40,114
DA:42,114
DA:44,2736
DA:46,2622
DA:47,2622
DA:49,912
DA:52,912
DA:53,912
DA:55,114
DA:59,2622
DA:60,2622
DA:62,114
DA:65,2622
DA:66,2622
DA:68,456
DA:71,2622
DA:72,2622
DA:74,570
DA:77,2622
DA:81,114
DA:82,114
DA:84,114
DA:86,114
DA:87,114
LF:38
LH:38
end_of_record
TN:
SF:/home/usr/Sources/SDK/IO.SDK/Helpers/Type.cpp
FN:19,_ZN2IO3SDK7Helpers12IsInstanceOfINS0_4Body13CelestialBodyES4_EEbPKT0_
FN:19,_ZN2IO3SDK7Helpers12IsInstanceOfINS0_4Body13CelestialBodyENS3_4BodyEEEbPKT0_
FNDA:1,_ZN2IO3SDK7Helpers12IsInstanceOfINS0_4Body13CelestialBodyES4_EEbPKT0_
FNDA:622187,_ZN2IO3SDK7Helpers12IsInstanceOfINS0_4Body13CelestialBodyENS3_4BodyEEEbPKT0_
FNF:2
FNH:2
DA:19,622188
DA:21,622188
LF:2
LH:2
end_of_record
TN:
SF:/home/usr/Sources/SDK/IO.SDK/Illumination/Illumination.h
FN:39,_ZN2IO3SDK12Illumination12IlluminationC2ERKNS0_4Math8Vector3DEdddRKNS0_4Time3TDBE
FN:47,_ZNK2IO3SDK12Illumination12Illumination8GetEpochEv
FN:57,_ZNK2IO3SDK12Illumination12Illumination25GetObserverToSurfacePointEv
FN:67,_ZNK2IO3SDK12Illumination12Illumination13GetPhaseAngleEv
FN:77,_ZNK2IO3SDK12Illumination12Illumination12GetIncidenceEv
FN:87,_ZNK2IO3SDK12Illumination12Illumination11GetEmissionEv
FNDA:3,_ZNK2IO3SDK12Illumination12Illumination13GetPhaseAngleEv
FNDA:7,_ZN2IO3SDK12Illumination12IlluminationC2ERKNS0_4Math8Vector3DEdddRKNS0_4Time3TDBE
FNDA:7,_ZNK2IO3SDK12Illumination12Illumination12GetIncidenceEv
FNDA:3,_ZNK2IO3SDK12Illumination12Illumination8GetEpochEv
FNDA:9,_ZNK2IO3SDK12Illumination12Illumination25GetObserverToSurfacePointEv
FNDA:3,_ZNK2IO3SDK12Illumination12Illumination11GetEmissionEv
FNF:6
FNH:6
DA:39,7
DA:40,7
DA:47,3
DA:49,3
DA:57,9
DA:59,9
DA:67,3
DA:69,3
DA:77,7
DA:79,7
DA:87,3
DA:89,3
LF:12
LH:12
end_of_record
TN:
SF:/home/usr/Sources/SDK/IO.SDK/IlluminationAngle.cpp
FN:22,_ZN2IO3SDK17IlluminationAngleC2ERKNSt7__cxx1112basic_stringIcSt11char_traitsIcESaIcEEE
FN:32,_ZNK2IO3SDK17IlluminationAngle11ToCharArrayEv
FN:37,_ZN2IO3SDK17IlluminationAngle5PhaseEv
FN:41,_ZN2IO3SDK17IlluminationAngle9IncidenceEv
FN:45,_ZN2IO3SDK17IlluminationAngle8EmissionEv
FNDA:10,_ZN2IO3SDK17IlluminationAngle9IncidenceEv
FNDA:12,_ZNK2IO3SDK17IlluminationAngle11ToCharArrayEv
FNDA:1,_ZN2IO3SDK17IlluminationAngle8EmissionEv
FNDA:15,_ZN2IO3SDK17IlluminationAngleC2ERKNSt7__cxx1112basic_stringIcSt11char_traitsIcESaIcEEE
FNDA:1,_ZN2IO3SDK17IlluminationAngle5PhaseEv
FNF:5
FNH:5
DA:22,15
DA:25,15
DA:32,12
DA:34,12
DA:37,1
DA:39,1
DA:41,10
DA:43,10
DA:45,1
DA:47,1
LF:10
LH:10
end_of_record
TN:
SF:/home/usr/Sources/SDK/IO.SDK/Instruments/FOVShapes.cpp
FN:14,_ZNK2IO3SDK11Instruments9FOVShapes8ToStringB5cxx11ENS1_12FOVShapeEnumE
FNDA:0,_ZNK2IO3SDK11Instruments9FOVShapes8ToStringB5cxx11ENS1_12FOVShapeEnumE
FNF:1
FNH:0
DA:14,0
DA:20,0
DA:21,0
DA:22,0
LF:4
LH:0
end_of_record
TN:
SF:/home/usr/Sources/SDK/IO.SDK/Instruments/Instrument.cpp
FN:23,_ZNK2IO3SDK11Instruments10Instrument12GetFilesPathB5cxx11Ev
FN:28,_ZNK2IO3SDK11Instruments10Instrument7GetNameB5cxx11Ev
FN:33,_ZNK2IO3SDK11Instruments10Instrument5GetIdEv
FN:38,_ZNK2IO3SDK11Instruments10Instrument13GetSpacecraftEv
FN:43,_ZNK2IO3SDK11Instruments10Instrument8GetFrameEv
FN:48,_ZN2IO3SDK11Instruments10InstrumentC2ERKNS0_4Body10Spacecraft10SpacecraftEtRKNSt7__cxx1112basic_stringIcSt11char_traitsIcESaIcEEERKNS0_4Math8Vector3DESJ_SJ_d
FN:63,_ZN2IO3SDK11Instruments10InstrumentC2ERKNS0_4Body10Spacecraft10SpacecraftEtRKNSt7__cxx1112basic_stringIcSt11char_traitsIcESaIcEEERKNS0_4Math8Vector3DENS1_12FOVShapeEnumESJ_SJ_dd
FN:91,_ZNK2IO3SDK11Instruments10Instrument12GetBoresightEv
FN:96,_ZNK2IO3SDK11Instruments10Instrument11GetFOVShapeEv
FN:101,_ZNK2IO3SDK11Instruments10Instrument16GetFOVBoundariesEv
FN:120,_ZNK2IO3SDK11Instruments10Instrument29FindWindowsWhereInFieldOfViewERKNS0_4Time6WindowINS3_3TDBEEERKNS0_4Body4BodyERKNS3_8TimeSpanERKNS0_15AberrationsEnumE
FNDA:22,_ZNK2IO3SDK11Instruments10Instrument12GetFilesPathB5cxx11Ev
FNDA:1,_ZNK2IO3SDK11Instruments10Instrument12GetBoresightEv
FNDA:12,_ZNK2IO3SDK11Instruments10Instrument8GetFrameEv
FNDA:1,_ZNK2IO3SDK11Instruments10Instrument29FindWindowsWhereInFieldOfViewERKNS0_4Time6WindowINS3_3TDBEEERKNS0_4Body4BodyERKNS3_8TimeSpanERKNS0_15AberrationsEnumE
FNDA:2,_ZN2IO3SDK11Instruments10InstrumentC2ERKNS0_4Body10Spacecraft10SpacecraftEtRKNSt7__cxx1112basic_stringIcSt11char_traitsIcESaIcEEERKNS0_4Math8Vector3DENS1_12FOVShapeEnumESJ_SJ_dd
FNDA:56,_ZNK2IO3SDK11Instruments10Instrument13GetSpacecraftEv
FNDA:55,_ZNK2IO3SDK11Instruments10Instrument7GetNameB5cxx11Ev
FNDA:1,_ZNK2IO3SDK11Instruments10Instrument16GetFOVBoundariesEv
FNDA:10,_ZN2IO3SDK11Instruments10InstrumentC2ERKNS0_4Body10Spacecraft10SpacecraftEtRKNSt7__cxx1112basic_stringIcSt11char_traitsIcESaIcEEERKNS0_4Math8Vector3DESJ_SJ_d
FNDA:1,_ZNK2IO3SDK11Instruments10Instrument11GetFOVShapeEv
FNDA:218,_ZNK2IO3SDK11Instruments10Instrument5GetIdEv
FNF:11
FNH:11
DA:23,22
DA:25,22
DA:28,55
DA:30,55
DA:33,218
DA:35,218
DA:38,56
DA:40,56
DA:43,12
DA:45,12
DA:48,10
DA:49,10
DA:50,9
DA:51,18
DA:52,9
DA:57,46
DA:60,9
DA:61,9
DA:63,2
DA:64,2
DA:65,2
DA:66,4
DA:67,2
DA:73,10
DA:76,2
DA:78,0
DA:81,2
DA:83,1
DA:85,1
DA:87,1
DA:89,2
DA:91,1
DA:93,1
DA:96,1
DA:98,1
DA:101,1
DA:109,1
DA:111,1
DA:112,2
DA:114,1
DA:117,2
DA:120,1
DA:122,2
DA:123,2
DA:125,1
DA:126,1
DA:128,1
DA:129,1
DA:132,1
DA:138,1
DA:141,1
DA:144,1
DA:146,1
DA:148,1
DA:150,2
DA:152,1
DA:153,1
DA:155,2
LF:58
LH:57
end_of_record
TN:
SF:/home/usr/Sources/SDK/IO.SDK/Instruments/Instrument.h
FN:94,_ZN2IO3SDK11Instruments10InstrumentD2Ev
FNDA:11,_ZN2IO3SDK11Instruments10InstrumentD2Ev
FNF:1
FNH:1
DA:94,11
LF:1
LH:1
end_of_record
TN:
SF:/home/usr/Sources/SDK/IO.SDK/Integrators/Forces/Force.cpp
FN:13,_ZN2IO3SDK11Integrators6Forces5ForceC2Ev
FNDA:12,_ZN2IO3SDK11Integrators6Forces5ForceC2Ev
FNF:1
FNH:1
DA:13,12
DA:15,12
LF:2
LH:2
end_of_record
TN:
SF:/home/usr/Sources/SDK/IO.SDK/Integrators/Forces/GravityForce.cpp
FN:17,_ZN2IO3SDK11Integrators6Forces12GravityForceC2Ev
FN:21,_ZN2IO3SDK11Integrators6Forces12GravityForceD2Ev
FN:25,_ZN2IO3SDK11Integrators6Forces12GravityForce5ApplyERKNS0_4Body4BodyERKNS0_17OrbitalParameters11StateVectorE
FN:65,_ZN2IO3SDK11Integrators6Forces12ComputeForceEdddRKNS0_4Math8Vector3DE
FNDA:621390,_ZN2IO3SDK11Integrators6Forces12GravityForce5ApplyERKNS0_4Body4BodyERKNS0_17OrbitalParameters11StateVectorE
FNDA:12,_ZN2IO3SDK11Integrators6Forces12GravityForceD2Ev
FNDA:1243886,_ZN2IO3SDK11Integrators6Forces12ComputeForceEdddRKNS0_4Math8Vector3DE
FNDA:12,_ZN2IO3SDK11Integrators6Forces12GravityForceC2Ev
FNF:4
FNH:4
DA:17,12
DA:19,12
DA:21,12
DA:23,12
DA:25,621390
DA:28,621390
DA:29,621390
DA:30,621390
DA:35,1242780
DA:36,621494
DA:39,104
DA:42,104
DA:45,104
DA:49,1242884
DA:51,621494
DA:53,621390
DA:55,104
DA:57,104
DA:59,104
DA:62,1242780
DA:65,1243886
DA:67,1243886
LF:22
LH:22
end_of_record
TN:
SF:/home/usr/Sources/SDK/IO.SDK/Integrators/IntegratorBase.cpp
FN:15,_ZN2IO3SDK11Integrators14IntegratorBaseC2ERKNS0_4Time8TimeSpanE
FNDA:48,_ZN2IO3SDK11Integrators14IntegratorBaseC2ERKNS0_4Time8TimeSpanE
FNF:1
FNH:1
DA:15,48
DA:17,48
LF:2
LH:2
end_of_record
TN:
SF:/home/usr/Sources/SDK/IO.SDK/Integrators/TLEIntegrator.cpp
FN:14,_ZN2IO3SDK11Integrators13TLEIntegratorC2ERKNS0_17OrbitalParameters3TLEERKNS0_4Time8TimeSpanE
FN:18,_ZN2IO3SDK11Integrators13TLEIntegratorD2Ev
FN:22,_ZN2IO3SDK11Integrators13TLEIntegrator9IntegrateERKNS0_4Body4BodyERKNS0_17OrbitalParameters11StateVectorE
FNDA:3,_ZN2IO3SDK11Integrators13TLEIntegratorD2Ev
FNDA:3,_ZN2IO3SDK11Integrators13TLEIntegratorC2ERKNS0_17OrbitalParameters3TLEERKNS0_4Time8TimeSpanE
FNDA:101,_ZN2IO3SDK11Integrators13TLEIntegrator9IntegrateERKNS0_4Body4BodyERKNS0_17OrbitalParameters11StateVectorE
FNF:3
FNH:3
DA:14,3
DA:16,3
DA:18,3
DA:20,3
DA:22,101
DA:24,202
LF:6
LH:6
end_of_record
TN:
SF:/home/usr/Sources/SDK/IO.SDK/Integrators/VVIntegrator.cpp
FN:15,_ZN2IO3SDK11Integrators12VVIntegratorC2ERKNS0_4Time8TimeSpanE
FN:23,_ZN2IO3SDK11Integrators12VVIntegratorC2ERKNS0_4Time8TimeSpanESt6vectorIPNS1_6Forces5ForceESaISA_EE
FN:32,_ZN2IO3SDK11Integrators12VVIntegratorD2Ev
FN:36,_ZN2IO3SDK11Integrators12VVIntegrator9IntegrateERKNS0_4Body4BodyERKNS0_17OrbitalParameters11StateVectorE
FN:64,_ZNK2IO3SDK11Integrators12VVIntegrator19ComputeAccelerationERKNS0_4Body4BodyERKNS0_17OrbitalParameters11StateVectorE
FNDA:10,_ZN2IO3SDK11Integrators12VVIntegratorC2ERKNS0_4Time8TimeSpanESt6vectorIPNS1_6Forces5ForceESaISA_EE
FNDA:45,_ZN2IO3SDK11Integrators12VVIntegratorD2Ev
FNDA:621879,_ZN2IO3SDK11Integrators12VVIntegrator9IntegrateERKNS0_4Body4BodyERKNS0_17OrbitalParameters11StateVectorE
FNDA:621898,_ZNK2IO3SDK11Integrators12VVIntegrator19ComputeAccelerationERKNS0_4Body4BodyERKNS0_17OrbitalParameters11StateVectorE
FNDA:45,_ZN2IO3SDK11Integrators12VVIntegratorC2ERKNS0_4Time8TimeSpanE
FNF:5
FNH:5
DA:15,45
DA:17,45
DA:19,0
DA:21,45
DA:23,10
DA:25,10
DA:27,0
DA:29,10
DA:30,10
DA:32,45
DA:34,45
DA:36,621879
DA:39,621879
DA:40,621879
DA:41,1243758
DA:43,621879
DA:45,19
DA:48,621879
DA:50,621879
DA:52,621879
DA:54,621879
DA:57,1243758
DA:61,1243758
DA:64,621898
DA:66,621898
DA:67,1243286
DA:69,621388
DA:73,1243796
LF:28
LH:26
end_of_record
TN:
SF:/home/usr/Sources/SDK/IO.SDK/Kernels/CircularInstrumentKernel.cpp
FN:15,_ZN2IO3SDK7Kernels24CircularInstrumentKernelC2ERKNS0_11Instruments10InstrumentERKNS0_4Math8Vector3DESA_d
FNDA:9,_ZN2IO3SDK7Kernels24CircularInstrumentKernelC2ERKNS0_11Instruments10InstrumentERKNS0_4Math8Vector3DESA_d
FNF:1
FNH:1
DA:15,9
DA:16,9
DA:18,9
DA:19,9
DA:20,9
DA:21,9
LF:6
LH:6
end_of_record
TN:
SF:/home/usr/Sources/SDK/IO.SDK/Kernels/EllipticalInstrumentKernel.cpp
FN:15,_ZN2IO3SDK7Kernels26EllipticalInstrumentKernel11BuildKernelEv
FN:106,_ZN2IO3SDK7Kernels26EllipticalInstrumentKernelC2ERKNS0_11Instruments10InstrumentERKNS0_4Math8Vector3DESA_dd
FNDA:1,_ZN2IO3SDK7Kernels26EllipticalInstrumentKernelC2ERKNS0_11Instruments10InstrumentERKNS0_4Math8Vector3DESA_dd
FNDA:1,_ZN2IO3SDK7Kernels26EllipticalInstrumentKernel11BuildKernelEv
FNF:2
FNH:2
DA:15,1
DA:17,1
DA:19,1
DA:20,1
DA:23,2
DA:24,2
DA:25,2
DA:26,2
DA:27,2
DA:29,1
DA:31,13
DA:33,12
DA:34,12
DA:36,8
DA:39,12
DA:40,12
DA:42,1
DA:45,12
DA:46,12
DA:48,0
DA:51,12
DA:52,12
DA:54,1
DA:57,12
DA:58,12
DA:60,1
DA:63,12
DA:64,12
DA:66,1
DA:69,12
DA:70,12
DA:72,1
DA:75,12
DA:76,12
DA:78,1
DA:81,12
DA:82,12
DA:84,1
DA:87,12
DA:88,12
DA:90,1
DA:93,12
DA:94,12
DA:96,1
DA:99,12
DA:102,1
DA:106,1
DA:107,1
DA:109,1
DA:110,1
DA:111,1
DA:112,1
LF:52
LH:51
end_of_record
TN:
SF:/home/usr/Sources/SDK/IO.SDK/Kernels/EllipticalInstrumentKernel.h
FN:53,_ZN2IO3SDK7Kernels26EllipticalInstrumentKernelD2Ev
FN:53,_ZN2IO3SDK7Kernels26EllipticalInstrumentKernelD0Ev
FNDA:1,_ZN2IO3SDK7Kernels26EllipticalInstrumentKernelD2Ev
FNDA:1,_ZN2IO3SDK7Kernels26EllipticalInstrumentKernelD0Ev
FNF:2
FNH:2
DA:53,2
LF:1
LH:1
end_of_record
TN:
SF:/home/usr/Sources/SDK/IO.SDK/Kernels/EphemerisKernel.cpp
FN:17,_ZN2IO3SDK7Kernels15EphemerisKernelC2ERKNS0_4Body10Spacecraft10SpacecraftE
FN:21,_ZNK2IO3SDK7Kernels15EphemerisKernel15ReadStateVectorERKNS0_4Body13CelestialBodyERKNS0_6Frames6FramesENS0_15AberrationsEnumERKNS0_4Time3TDBE
FN:35,_ZNK2IO3SDK7Kernels15EphemerisKernel17GetCoverageWindowEv
FN:48,_ZN2IO3SDK7Kernels15EphemerisKernel9WriteDataERKSt6vectorINS0_17OrbitalParameters11StateVectorESaIS5_EE
FN:118,_ZNK2IO3SDK7Kernels15EphemerisKernel18IsEvenlySpacedDataERKSt6vectorINS0_17OrbitalParameters11StateVectorESaIS5_EE
FNDA:22,_ZNK2IO3SDK7Kernels15EphemerisKernel18IsEvenlySpacedDataERKSt6vectorINS0_17OrbitalParameters11StateVectorESaIS5_EE
FNDA:1,_ZNK2IO3SDK7Kernels15EphemerisKernel17GetCoverageWindowEv
FNDA:114,_ZN2IO3SDK7Kernels15EphemerisKernelC2ERKNS0_4Body10Spacecraft10SpacecraftE
FNDA:7,_ZNK2IO3SDK7Kernels15EphemerisKernel15ReadStateVectorERKNS0_4Body13CelestialBodyERKNS0_6Frames6FramesENS0_15AberrationsEnumERKNS0_4Time3TDBE
FNDA:22,_ZN2IO3SDK7Kernels15EphemerisKernel9WriteDataERKSt6vectorINS0_17OrbitalParameters11StateVectorESaIS5_EE
FNF:5
FNH:5
DA:17,114
DA:19,114
DA:21,7
DA:26,7
DA:27,49
DA:29,42
DA:32,14
DA:35,1
DA:39,1
DA:43,1
DA:45,2
DA:48,22
DA:51,22
DA:53,0
DA:56,44
DA:57,622048
DA:59,622026
DA:61,0
DA:66,22
DA:68,22
DA:69,22
DA:72,22
DA:73,22
DA:74,22
DA:75,22
DA:77,22
DA:79,622048
DA:81,622026
DA:82,622026
DA:84,622026
DA:85,622026
DA:86,622026
DA:87,622026
DA:88,622026
DA:89,622026
DA:92,22
DA:94,22
DA:96,22
DA:98,8
DA:102,14
DA:103,522511
DA:105,522497
DA:108,14
DA:109,14
DA:111,22
DA:113,22
DA:115,22
DA:116,22
DA:118,22
DA:121,22
DA:123,0
DA:126,22
DA:128,0
DA:131,22
DA:132,178270
DA:134,178262
DA:136,14
DA:140,8
LF:58
LH:54
end_of_record
TN:
SF:/home/usr/Sources/SDK/IO.SDK/Kernels/EphemerisKernel.h
FN:47,_ZN2IO3SDK7Kernels15EphemerisKernelD0Ev
FN:47,_ZN2IO3SDK7Kernels15EphemerisKernelD2Ev
FNDA:114,_ZN2IO3SDK7Kernels15EphemerisKernelD0Ev
FNDA:114,_ZN2IO3SDK7Kernels15EphemerisKernelD2Ev
FNF:2
FNH:2
DA:47,228
LF:1
LH:1
end_of_record
TN:
SF:/home/usr/Sources/SDK/IO.SDK/Kernels/InstrumentKernel.cpp
FN:16,_ZN2IO3SDK7Kernels16InstrumentKernelC2ERKNS0_11Instruments10InstrumentERKNS0_4Math8Vector3DESA_dRKNSt7__cxx1112basic_stringIcSt11char_traitsIcESaIcEEE
FN:25,_ZNK2IO3SDK7Kernels16InstrumentKernel17GetCoverageWindowEv
FN:30,_ZN2IO3SDK7Kernels16InstrumentKernel11BuildKernelEv
FNDA:11,_ZN2IO3SDK7Kernels16InstrumentKernelC2ERKNS0_11Instruments10InstrumentERKNS0_4Math8Vector3DESA_dRKNSt7__cxx1112basic_stringIcSt11char_traitsIcESaIcEEE
FNDA:9,_ZN2IO3SDK7Kernels16InstrumentKernel11BuildKernelEv
FNDA:0,_ZNK2IO3SDK7Kernels16InstrumentKernel17GetCoverageWindowEv
FNF:3
FNH:2
DA:16,22
DA:21,33
DA:23,11
DA:25,0
DA:27,0
DA:30,9
DA:32,9
DA:34,9
DA:35,9
DA:38,18
DA:39,18
DA:40,18
DA:41,18
DA:42,18
DA:44,9
DA:46,117
DA:48,108
DA:49,108
DA:51,63
DA:54,108
DA:55,108
DA:57,9
DA:60,108
DA:61,108
DA:63,0
DA:66,108
DA:67,108
DA:69,9
DA:72,108
DA:73,108
DA:75,9
DA:78,108
DA:79,108
DA:81,9
DA:84,108
DA:85,108
DA:87,9
DA:90,108
DA:91,108
DA:93,9
DA:96,108
DA:97,108
DA:99,9
DA:102,108
DA:103,108
DA:105,9
DA:108,108
DA:111,9
DA:112,9
DA:114,9
DA:116,9
DA:118,9
LF:52
LH:49
end_of_record
TN:
SF:/home/usr/Sources/SDK/IO.SDK/Kernels/InstrumentKernel.h
FN:62,_ZN2IO3SDK7Kernels16InstrumentKernelD0Ev
FN:62,_ZN2IO3SDK7Kernels16InstrumentKernelD2Ev
FNDA:0,_ZN2IO3SDK7Kernels16InstrumentKernelD0Ev
FNDA:11,_ZN2IO3SDK7Kernels16InstrumentKernelD2Ev
FNF:2
FNH:1
DA:62,11
LF:1
LH:1
end_of_record
TN:
SF:/home/usr/Sources/SDK/IO.SDK/Kernels/Kernel.cpp
FN:20,_ZN2IO3SDK7Kernels6KernelC2ERKNSt7__cxx1112basic_stringIcSt11char_traitsIcESaIcEEE
FN:41,_ZN2IO3SDK7Kernels6KernelD0Ev
FN:41,_ZN2IO3SDK7Kernels6KernelD2Ev
FN:46,_ZNK2IO3SDK7Kernels6Kernel7GetPathB5cxx11Ev
FN:51,_ZNK2IO3SDK7Kernels6Kernel8IsLoadedEv
FN:56,_ZNK2IO3SDK7Kernels6Kernel10AddCommentERKNSt7__cxx1112basic_stringIcSt11char_traitsIcESaIcEEE
FN:79,_ZNK2IO3SDK7Kernels6Kernel11ReadCommentB5cxx11Ev
FN:93,_ZNK2IO3SDK7Kernels6Kernel22DefinePolynomialDegreeEii
FNDA:2,_ZNK2IO3SDK7Kernels6Kernel11ReadCommentB5cxx11Ev
FNDA:0,_ZN2IO3SDK7Kernels6KernelD0Ev
FNDA:3,_ZNK2IO3SDK7Kernels6Kernel10AddCommentERKNSt7__cxx1112basic_stringIcSt11char_traitsIcESaIcEEE
FNDA:353,_ZN2IO3SDK7Kernels6KernelD2Ev
FNDA:1,_ZNK2IO3SDK7Kernels6Kernel7GetPathB5cxx11Ev
FNDA:0,_ZNK2IO3SDK7Kernels6Kernel8IsLoadedEv
FNDA:45,_ZNK2IO3SDK7Kernels6Kernel22DefinePolynomialDegreeEii
FNDA:353,_ZN2IO3SDK7Kernels6KernelC2ERKNSt7__cxx1112basic_stringIcSt11char_traitsIcESaIcEEE
FNF:8
FNH:6
DA:20,353
DA:23,1059
DA:24,353
DA:26,353
DA:28,0
DA:32,353
DA:34,0
DA:35,0
DA:36,0
DA:39,353
DA:41,353
DA:43,353
DA:44,353
DA:46,1
DA:48,1
DA:51,0
DA:53,0
DA:56,3
DA:58,3
DA:60,1
DA:65,2
DA:68,2
DA:71,2
DA:72,2
DA:73,2
DA:76,2
DA:77,2
DA:79,2
DA:84,2
DA:86,2
DA:87,2
DA:88,2
DA:90,4
DA:93,45
DA:96,45
DA:98,45
DA:100,0
DA:103,45
DA:105,20
DA:107,25
DA:109,12
DA:112,45
LF:42
LH:35
end_of_record
TN:
SF:/home/usr/Sources/SDK/IO.SDK/Kernels/OrientationKernel.cpp
FN:23,_ZN2IO3SDK7Kernels17OrientationKernelC2ERKNS0_4Body10Spacecraft10SpacecraftE
FN:27,_ZN2IO3SDK7Kernels17OrientationKernelD2Ev
FN:27,_ZN2IO3SDK7Kernels17OrientationKernelD0Ev
FN:31,_ZNK2IO3SDK7Kernels17OrientationKernel17WriteOrientationsERKSt6vectorIS3_INS0_17OrbitalParameters16StateOrientationESaIS5_EESaIS7_EE
FN:122,_ZNK2IO3SDK7Kernels17OrientationKernel20ReadStateOrientationERKNS0_4Time3TDBERKNS3_8TimeSpanERKNS0_6Frames6FramesE
FN:177,_ZNK2IO3SDK7Kernels17OrientationKernel17GetCoverageWindowEv
FNDA:23,_ZNK2IO3SDK7Kernels17OrientationKernel17WriteOrientationsERKSt6vectorIS3_INS0_17OrbitalParameters16StateOrientationESaIS5_EESaIS7_EE
FNDA:14,_ZNK2IO3SDK7Kernels17OrientationKernel20ReadStateOrientationERKNS0_4Time3TDBERKNS3_8TimeSpanERKNS0_6Frames6FramesE
FNDA:114,_ZN2IO3SDK7Kernels17OrientationKernelD2Ev
FNDA:114,_ZN2IO3SDK7Kernels17OrientationKernelC2ERKNS0_4Body10Spacecraft10SpacecraftE
FNDA:114,_ZN2IO3SDK7Kernels17OrientationKernelD0Ev
FNDA:24,_ZNK2IO3SDK7Kernels17OrientationKernel17GetCoverageWindowEv
FNF:6
FNH:6
DA:23,114
DA:25,114
DA:27,228
DA:29,228
DA:31,23
DA:33,23
DA:35,0
DA:38,46
DA:39,46
DA:41,772
DA:43,749
DA:45,0
DA:51,23
DA:54,23
DA:57,23
DA:60,23
DA:63,23
DA:66,46
DA:69,46
DA:72,46
DA:75,23
DA:77,46
DA:79,23
DA:81,0
DA:85,23
DA:88,23
DA:90,23
DA:92,23
DA:94,23
DA:95,772
DA:98,749
DA:101,749
DA:105,23
DA:107,23
DA:109,23
DA:110,23
DA:115,23
DA:116,23
DA:117,23
DA:119,23
DA:120,23
DA:122,14
DA:125,14
DA:128,14
DA:131,14
DA:139,14
DA:141,14
DA:143,0
DA:148,14
DA:149,56
DA:151,168
DA:154,56
DA:156,168
DA:158,126
DA:162,14
DA:165,56
DA:166,42
DA:168,14
DA:170,14
DA:171,28
DA:174,28
DA:177,24
DA:180,24
DA:182,24
DA:186,24
DA:188,48
LF:66
LH:62
end_of_record
TN:
SF:/home/usr/Sources/SDK/IO.SDK/Kernels/RectangularInstrumentKernel.cpp
FN:15,_ZN2IO3SDK7Kernels27RectangularInstrumentKernel11BuildKernelEv
FN:104,_ZN2IO3SDK7Kernels27RectangularInstrumentKernelC2ERKNS0_11Instruments10InstrumentERKNS0_4Math8Vector3DESA_dd
FNDA:1,_ZN2IO3SDK7Kernels27RectangularInstrumentKernel11BuildKernelEv
FNDA:1,_ZN2IO3SDK7Kernels27RectangularInstrumentKernelC2ERKNS0_11Instruments10InstrumentERKNS0_4Math8Vector3DESA_dd
FNF:2
FNH:2
DA:15,1
DA:17,1
DA:19,1
DA:20,1
DA:23,2
DA:24,2
DA:25,2
DA:26,2
DA:27,2
DA:29,1
DA:31,13
DA:33,12
DA:34,12
DA:36,8
DA:39,12
DA:40,12
DA:42,1
DA:45,12
DA:46,12
DA:48,0
DA:51,12
DA:52,12
DA:54,1
DA:57,12
DA:58,12
DA:60,1
DA:63,12
DA:64,12
DA:66,1
DA:69,12
DA:70,12
DA:72,1
DA:75,12
DA:76,12
DA:78,1
DA:81,12
DA:82,12
DA:84,1
DA:87,12
DA:88,12
DA:90,1
DA:93,12
DA:94,12
DA:96,1
DA:99,12
DA:102,1
DA:104,1
DA:105,1
DA:107,1
DA:108,1
DA:109,1
DA:110,1
LF:52
LH:51
end_of_record
TN:
SF:/home/usr/Sources/SDK/IO.SDK/Kernels/RectangularInstrumentKernel.h
FN:48,_ZN2IO3SDK7Kernels27RectangularInstrumentKernelD2Ev
FN:48,_ZN2IO3SDK7Kernels27RectangularInstrumentKernelD0Ev
FNDA:1,_ZN2IO3SDK7Kernels27RectangularInstrumentKernelD2Ev
FNDA:1,_ZN2IO3SDK7Kernels27RectangularInstrumentKernelD0Ev
FNF:2
FNH:2
DA:48,2
LF:1
LH:1
end_of_record
TN:
SF:/home/usr/Sources/SDK/IO.SDK/Kernels/SolarSystemKernelsLoader.cpp
FN:18,_ZN2IO3SDK7Kernels24SolarSystemKernelsLoaderC2Ev
FNDA:5,_ZN2IO3SDK7Kernels24SolarSystemKernelsLoaderC2Ev
FNF:1
FNH:1
DA:18,5
DA:20,5
DA:22,0
DA:25,85
DA:27,70
DA:29,5
LF:6
LH:5
end_of_record
TN:
SF:/home/usr/Sources/SDK/IO.SDK/Kernels/SpacecraftClockKernel.cpp
FN:23,_ZN2IO3SDK7Kernels21SpacecraftClockKernelC2ERKNS0_4Body10Spacecraft10SpacecraftEi
FN:32,_ZNK2IO3SDK7Kernels21SpacecraftClockKernel17GetCoverageWindowEv
FN:50,_ZNK2IO3SDK7Kernels21SpacecraftClockKernel12ConvertToTDBERKNSt7__cxx1112basic_stringIcSt11char_traitsIcESaIcEEE
FN:57,_ZNK2IO3SDK7Kernels21SpacecraftClockKernel12ConvertToTDBEd
FN:64,_ZNK2IO3SDK7Kernels21SpacecraftClockKernel20ConvertToClockStringB5cxx11ERKNS0_4Time3TDBE
FN:71,_ZN2IO3SDK7Kernels21SpacecraftClockKernel23BuildGenericClockKernelEv
FN:113,_ZNK2IO3SDK7Kernels21SpacecraftClockKernel21ConvertToEncodedClockERKNS0_4Time3TDBE
FN:120,_ZNK2IO3SDK7Kernels21SpacecraftClockKernel18GetTicksPerSecondsEv
FN:125,_ZNK2IO3SDK7Kernels21SpacecraftClockKernel17GetSecondsPerTickEv
FNDA:1,_ZNK2IO3SDK7Kernels21SpacecraftClockKernel12ConvertToTDBERKNSt7__cxx1112basic_stringIcSt11char_traitsIcESaIcEEE
FNDA:114,_ZN2IO3SDK7Kernels21SpacecraftClockKernelC2ERKNS0_4Body10Spacecraft10SpacecraftEi
FNDA:1,_ZNK2IO3SDK7Kernels21SpacecraftClockKernel20ConvertToClockStringB5cxx11ERKNS0_4Time3TDBE
FNDA:14,_ZNK2IO3SDK7Kernels21SpacecraftClockKernel12ConvertToTDBEd
FNDA:130,_ZNK2IO3SDK7Kernels21SpacecraftClockKernel18GetTicksPerSecondsEv
FNDA:1,_ZNK2IO3SDK7Kernels21SpacecraftClockKernel17GetSecondsPerTickEv
FNDA:1,_ZNK2IO3SDK7Kernels21SpacecraftClockKernel17GetCoverageWindowEv
FNDA:114,_ZN2IO3SDK7Kernels21SpacecraftClockKernel23BuildGenericClockKernelEv
FNDA:833,_ZNK2IO3SDK7Kernels21SpacecraftClockKernel21ConvertToEncodedClockERKNS0_4Time3TDBE
FNF:9
FNH:9
DA:23,114
DA:25,114
DA:27,114
DA:28,114
DA:30,114
DA:32,1
DA:39,1
DA:44,1
DA:45,1
DA:47,2
DA:50,1
DA:53,1
DA:54,1
DA:57,14
DA:59,14
DA:60,14
DA:61,14
DA:64,1
DA:67,1
DA:68,2
DA:71,114
DA:73,114
DA:75,114
DA:76,114
DA:79,228
DA:80,342
DA:81,228
DA:82,228
DA:83,228
DA:85,228
DA:87,114
DA:89,2850
DA:91,2736
DA:92,2736
DA:94,1026
DA:97,2736
DA:98,2736
DA:100,114
DA:103,2736
DA:107,114
DA:108,114
DA:110,114
DA:111,114
DA:113,833
DA:115,833
DA:116,833
DA:117,833
DA:120,130
DA:122,130
DA:125,1
DA:127,1
LF:51
LH:51
end_of_record
TN:
SF:/home/usr/Sources/SDK/IO.SDK/Kernels/SpacecraftClockKernel.h
FN:47,_ZN2IO3SDK7Kernels21SpacecraftClockKernelD2Ev
FN:47,_ZN2IO3SDK7Kernels21SpacecraftClockKernelD0Ev
FN:93,_ZNK2IO3SDK7Kernels21SpacecraftClockKernel13GetResolutionEv
FNDA:114,_ZN2IO3SDK7Kernels21SpacecraftClockKernelD0Ev
FNDA:1,_ZNK2IO3SDK7Kernels21SpacecraftClockKernel13GetResolutionEv
FNDA:114,_ZN2IO3SDK7Kernels21SpacecraftClockKernelD2Ev
FNF:3
FNH:3
DA:47,228
DA:93,1
DA:95,1
LF:3
LH:3
end_of_record
TN:
SF:/home/usr/Sources/SDK/IO.SDK/Maneuvers/ApogeeHeightChangingManeuver.cpp
FN:16,_ZN2IO3SDK9Maneuvers28ApogeeHeightChangingManeuverC2ERKSt6vectorINS0_4Body10Spacecraft6EngineESaIS6_EERNS0_11Propagators10PropagatorEd
FN:20,_ZN2IO3SDK9Maneuvers28ApogeeHeightChangingManeuverC2ERKSt6vectorINS0_4Body10Spacecraft6EngineESaIS6_EERNS0_11Propagators10PropagatorEdRKNS0_4Time3TDBE
FN:24,_ZN2IO3SDK9Maneuvers28ApogeeHeightChangingManeuver7ComputeERKNS0_17OrbitalParameters17OrbitalParametersE
FN:31,_ZN2IO3SDK9Maneuvers28ApogeeHeightChangingManeuver18ComputeOrientationERKNS0_17OrbitalParameters17OrbitalParametersE
FN:45,_ZN2IO3SDK9Maneuvers28ApogeeHeightChangingManeuver10CanExecuteERKNS0_17OrbitalParameters17OrbitalParametersE
FN:75,_ZNK2IO3SDK9Maneuvers28ApogeeHeightChangingManeuver20IsApproachingPerigeeERKNS0_17OrbitalParameters11StateVectorE
FNDA:262085,_ZNK2IO3SDK9Maneuvers28ApogeeHeightChangingManeuver20IsApproachingPerigeeERKNS0_17OrbitalParameters11StateVectorE
FNDA:11,_ZN2IO3SDK9Maneuvers28ApogeeHeightChangingManeuver18ComputeOrientationERKNS0_17OrbitalParameters17OrbitalParametersE
FNDA:5,_ZN2IO3SDK9Maneuvers28ApogeeHeightChangingManeuver7ComputeERKNS0_17OrbitalParameters17OrbitalParametersE
FNDA:0,_ZN2IO3SDK9Maneuvers28ApogeeHeightChangingManeuverC2ERKSt6vectorINS0_4Body10Spacecraft6EngineESaIS6_EERNS0_11Propagators10PropagatorEdRKNS0_4Time3TDBE
FNDA:4,_ZN2IO3SDK9Maneuvers28ApogeeHeightChangingManeuverC2ERKSt6vectorINS0_4Body10Spacecraft6EngineESaIS6_EERNS0_11Propagators10PropagatorEd
FNDA:262089,_ZN2IO3SDK9Maneuvers28ApogeeHeightChangingManeuver10CanExecuteERKNS0_17OrbitalParameters17OrbitalParametersE
FNF:6
FNH:5
DA:16,4
DA:18,4
DA:20,0
DA:22,0
DA:24,5
DA:26,5
DA:27,5
DA:28,5
DA:29,5
DA:31,11
DA:33,11
DA:34,11
DA:37,11
DA:39,8
DA:42,22
DA:45,262089
DA:47,262089
DA:49,4
DA:52,262085
DA:55,262085
DA:58,2
DA:59,2
DA:63,262083
DA:66,7
DA:69,7
DA:72,262076
DA:75,262085
DA:78,262085
DA:81,262085
DA:83,131042
DA:86,131043
LF:31
LH:29
end_of_record
TN:
SF:/home/usr/Sources/SDK/IO.SDK/Maneuvers/ApsidalAlignmentManeuver.cpp
FN:16,_ZN2IO3SDK9Maneuvers24ApsidalAlignmentManeuverC2ERKSt6vectorINS0_4Body10Spacecraft6EngineESaIS6_EERNS0_11Propagators10PropagatorEPNS0_17OrbitalParameters17OrbitalParametersE
FN:20,_ZN2IO3SDK9Maneuvers24ApsidalAlignmentManeuverC2ERKSt6vectorINS0_4Body10Spacecraft6EngineESaIS6_EERNS0_11Propagators10PropagatorEPNS0_17OrbitalParameters17OrbitalParametersERKNS0_4Time3TDBE
FN:24,_ZN2IO3SDK9Maneuvers24ApsidalAlignmentManeuver10CanExecuteERKNS0_17OrbitalParameters17OrbitalParametersE
FN:74,_ZN2IO3SDK9Maneuvers24ApsidalAlignmentManeuver7ComputeERKNS0_17OrbitalParameters17OrbitalParametersE
FN:80,_ZN2IO3SDK9Maneuvers24ApsidalAlignmentManeuver18ComputeOrientationERKNS0_17OrbitalParameters17OrbitalParametersE
FN:87,_ZNK2IO3SDK9Maneuvers24ApsidalAlignmentManeuver12IsIntersectPERKNS0_17OrbitalParameters11StateVectorE
FN:100,_ZNK2IO3SDK9Maneuvers24ApsidalAlignmentManeuver12IsIntersectQERKNS0_17OrbitalParameters11StateVectorE
FN:113,_ZNK2IO3SDK9Maneuvers24ApsidalAlignmentManeuver28IsApproachingIntersectPointPERKNS0_17OrbitalParameters11StateVectorE
FN:127,_ZNK2IO3SDK9Maneuvers24ApsidalAlignmentManeuver28IsApproachingIntersectPointQERKNS0_17OrbitalParameters11StateVectorE
FN:141,_ZNK2IO3SDK9Maneuvers24ApsidalAlignmentManeuver8GetThetaEv
FN:146,_ZNK2IO3SDK9Maneuvers24ApsidalAlignmentManeuver8GetThetaERKNS0_17OrbitalParameters11StateVectorE
FN:151,_ZNK2IO3SDK9Maneuvers24ApsidalAlignmentManeuver15GetCoefficientsB5cxx11ERKNS0_17OrbitalParameters11StateVectorE
FN:166,_ZNK2IO3SDK9Maneuvers24ApsidalAlignmentManeuver15GetPTrueAnomalyERKNS0_17OrbitalParameters11StateVectorE
FN:182,_ZNK2IO3SDK9Maneuvers24ApsidalAlignmentManeuver15GetQTrueAnomalyERKNS0_17OrbitalParameters11StateVectorE
FN:198,_ZNK2IO3SDK9Maneuvers24ApsidalAlignmentManeuver21GetPTargetTrueAnomalyERKNS0_17OrbitalParameters11StateVectorE
FN:203,_ZNK2IO3SDK9Maneuvers24ApsidalAlignmentManeuver21GetQTargetTrueAnomalyERKNS0_17OrbitalParameters11StateVectorE
FN:208,_ZNK2IO3SDK9Maneuvers24ApsidalAlignmentManeuver9GetDeltaVERKNS0_17OrbitalParameters11StateVectorE
FNDA:6954,_ZNK2IO3SDK9Maneuvers24ApsidalAlignmentManeuver15GetPTrueAnomalyERKNS0_17OrbitalParameters11StateVectorE
FNDA:0,_ZN2IO3SDK9Maneuvers24ApsidalAlignmentManeuverC2ERKSt6vectorINS0_4Body10Spacecraft6EngineESaIS6_EERNS0_11Propagators10PropagatorEPNS0_17OrbitalParameters17OrbitalParametersERKNS0_4Time3TDBE
FNDA:6959,_ZNK2IO3SDK9Maneuvers24ApsidalAlignmentManeuver15GetQTrueAnomalyERKNS0_17OrbitalParameters11StateVectorE
FNDA:6,_ZN2IO3SDK9Maneuvers24ApsidalAlignmentManeuver18ComputeOrientationERKNS0_17OrbitalParameters17OrbitalParametersE
FNDA:2,_ZNK2IO3SDK9Maneuvers24ApsidalAlignmentManeuver8GetThetaEv
FNDA:0,_ZNK2IO3SDK9Maneuvers24ApsidalAlignmentManeuver12IsIntersectPERKNS0_17OrbitalParameters11StateVectorE
FNDA:13913,_ZNK2IO3SDK9Maneuvers24ApsidalAlignmentManeuver15GetCoefficientsB5cxx11ERKNS0_17OrbitalParameters11StateVectorE
FNDA:9,_ZNK2IO3SDK9Maneuvers24ApsidalAlignmentManeuver9GetDeltaVERKNS0_17OrbitalParameters11StateVectorE
FNDA:1,_ZNK2IO3SDK9Maneuvers24ApsidalAlignmentManeuver21GetQTargetTrueAnomalyERKNS0_17OrbitalParameters11StateVectorE
FNDA:2,_ZNK2IO3SDK9Maneuvers24ApsidalAlignmentManeuver21GetPTargetTrueAnomalyERKNS0_17OrbitalParameters11StateVectorE
FNDA:3,_ZN2IO3SDK9Maneuvers24ApsidalAlignmentManeuver7ComputeERKNS0_17OrbitalParameters17OrbitalParametersE
FNDA:6952,_ZNK2IO3SDK9Maneuvers24ApsidalAlignmentManeuver28IsApproachingIntersectPointPERKNS0_17OrbitalParameters11StateVectorE
FNDA:13919,_ZNK2IO3SDK9Maneuvers24ApsidalAlignmentManeuver8GetThetaERKNS0_17OrbitalParameters11StateVectorE
FNDA:6958,_ZNK2IO3SDK9Maneuvers24ApsidalAlignmentManeuver28IsApproachingIntersectPointQERKNS0_17OrbitalParameters11StateVectorE
FNDA:4,_ZN2IO3SDK9Maneuvers24ApsidalAlignmentManeuverC2ERKSt6vectorINS0_4Body10Spacecraft6EngineESaIS6_EERNS0_11Propagators10PropagatorEPNS0_17OrbitalParameters17OrbitalParametersE
FNDA:0,_ZNK2IO3SDK9Maneuvers24ApsidalAlignmentManeuver12IsIntersectQERKNS0_17OrbitalParameters11StateVectorE
FNDA:6958,_ZN2IO3SDK9Maneuvers24ApsidalAlignmentManeuver10CanExecuteERKNS0_17OrbitalParameters17OrbitalParametersE
FNF:17
FNH:14
DA:16,4
DA:18,4
DA:20,0
DA:22,0
DA:24,6958
DA:26,6958
DA:27,6958
DA:30,6958
DA:33,6958
DA:35,4
DA:36,4
DA:40,6954
DA:42,3
DA:43,3
DA:44,3
DA:46,2
DA:47,2
DA:52,6952
DA:54,6952
DA:56,4
DA:57,4
DA:60,6948
DA:62,4
DA:63,4
DA:64,4
DA:66,3
DA:67,3
DA:71,6945
DA:74,3
DA:76,3
DA:77,3
DA:78,3
DA:80,6
DA:82,6
DA:84,12
DA:87,0
DA:89,0
DA:91,0
DA:92,0
DA:94,0
DA:97,0
DA:100,0
DA:102,0
DA:104,0
DA:105,0
DA:107,0
DA:110,0
DA:113,6952
DA:115,6952
DA:117,6952
DA:119,6952
DA:121,6948
DA:124,4
DA:127,6958
DA:129,6958
DA:131,6958
DA:133,6958
DA:135,3
DA:138,6955
DA:141,2
DA:143,2
DA:146,13919
DA:148,13919
DA:151,13913
DA:153,13913
DA:154,13913
DA:155,13913
DA:156,13913
DA:158,13913
DA:159,13913
DA:160,13913
DA:161,13913
DA:163,13913
DA:166,6954
DA:168,6954
DA:169,6954
DA:170,6954
DA:172,0
DA:175,6954
DA:177,0
DA:179,13908
DA:182,6959
DA:184,6959
DA:185,6959
DA:186,6959
DA:188,0
DA:191,6959
DA:193,6959
DA:195,13918
DA:198,2
DA:200,2
DA:203,1
DA:205,1
DA:208,9
DA:210,9
DA:212,6
DA:215,3
DA:216,3
DA:218,2
DA:220,1
DA:222,1
DA:226,0
DA:229,3
LF:103
LH:85
end_of_record
TN:
SF:/home/usr/Sources/SDK/IO.SDK/Maneuvers/Attitudes/NadirAttitude.cpp
FN:14,_ZN2IO3SDK9Maneuvers9Attitudes13NadirAttitudeC2ERKSt6vectorINS0_4Body10Spacecraft6EngineESaIS7_EERNS0_11Propagators10PropagatorERKNS0_4Time8TimeSpanE
FN:17,_ZN2IO3SDK9Maneuvers9Attitudes13NadirAttitudeC2ERKSt6vectorINS0_4Body10Spacecraft6EngineESaIS7_EERNS0_11Propagators10PropagatorERKNS0_4Time3TDBERKNSF_8TimeSpanE
FN:20,_ZN2IO3SDK9Maneuvers9Attitudes13NadirAttitude7ComputeERKNS0_17OrbitalParameters17OrbitalParametersE
FN:25,_ZN2IO3SDK9Maneuvers9Attitudes13NadirAttitude18ComputeOrientationERKNS0_17OrbitalParameters17OrbitalParametersE
FN:30,_ZN2IO3SDK9Maneuvers9Attitudes13NadirAttitude10CanExecuteERKNS0_17OrbitalParameters17OrbitalParametersE
FNDA:1,_ZN2IO3SDK9Maneuvers9Attitudes13NadirAttitudeC2ERKSt6vectorINS0_4Body10Spacecraft6EngineESaIS7_EERNS0_11Propagators10PropagatorERKNS0_4Time8TimeSpanE
FNDA:12,_ZN2IO3SDK9Maneuvers9Attitudes13NadirAttitude7ComputeERKNS0_17OrbitalParameters17OrbitalParametersE
FNDA:1,_ZN2IO3SDK9Maneuvers9Attitudes13NadirAttitudeC2ERKSt6vectorINS0_4Body10Spacecraft6EngineESaIS7_EERNS0_11Propagators10PropagatorERKNS0_4Time3TDBERKNSF_8TimeSpanE
FNDA:4,_ZN2IO3SDK9Maneuvers9Attitudes13NadirAttitude18ComputeOrientationERKNS0_17OrbitalParameters17OrbitalParametersE
FNDA:12,_ZN2IO3SDK9Maneuvers9Attitudes13NadirAttitude10CanExecuteERKNS0_17OrbitalParameters17OrbitalParametersE
FNF:5
FNH:5
DA:14,1
DA:16,1
DA:17,1
DA:19,1
DA:20,12
DA:22,12
DA:23,12
DA:25,4
DA:27,8
DA:30,12
DA:32,12
LF:11
LH:11
end_of_record
TN:
SF:/home/usr/Sources/SDK/IO.SDK/Maneuvers/Attitudes/ProgradeAttitude.cpp
FN:14,_ZN2IO3SDK9Maneuvers9Attitudes16ProgradeAttitudeC2ERKSt6vectorINS0_4Body10Spacecraft6EngineESaIS7_EERNS0_11Propagators10PropagatorERKNS0_4Time8TimeSpanE
FN:18,_ZN2IO3SDK9Maneuvers9Attitudes16ProgradeAttitudeC2ERKSt6vectorINS0_4Body10Spacecraft6EngineESaIS7_EERNS0_11Propagators10PropagatorERKNS0_4Time3TDBERKNSF_8TimeSpanE
FN:22,_ZN2IO3SDK9Maneuvers9Attitudes16ProgradeAttitude7ComputeERKNS0_17OrbitalParameters17OrbitalParametersE
FN:27,_ZN2IO3SDK9Maneuvers9Attitudes16ProgradeAttitude18ComputeOrientationERKNS0_17OrbitalParameters17OrbitalParametersE
FN:32,_ZN2IO3SDK9Maneuvers9Attitudes16ProgradeAttitude10CanExecuteERKNS0_17OrbitalParameters17OrbitalParametersE
FNDA:1,_ZN2IO3SDK9Maneuvers9Attitudes16ProgradeAttitudeC2ERKSt6vectorINS0_4Body10Spacecraft6EngineESaIS7_EERNS0_11Propagators10PropagatorERKNS0_4Time3TDBERKNSF_8TimeSpanE
FNDA:12,_ZN2IO3SDK9Maneuvers9Attitudes16ProgradeAttitude7ComputeERKNS0_17OrbitalParameters17OrbitalParametersE
FNDA:12,_ZN2IO3SDK9Maneuvers9Attitudes16ProgradeAttitude10CanExecuteERKNS0_17OrbitalParameters17OrbitalParametersE
FNDA:1,_ZN2IO3SDK9Maneuvers9Attitudes16ProgradeAttitudeC2ERKSt6vectorINS0_4Body10Spacecraft6EngineESaIS7_EERNS0_11Propagators10PropagatorERKNS0_4Time8TimeSpanE
FNDA:4,_ZN2IO3SDK9Maneuvers9Attitudes16ProgradeAttitude18ComputeOrientationERKNS0_17OrbitalParameters17OrbitalParametersE
FNF:5
FNH:5
DA:14,1
DA:16,1
DA:18,1
DA:20,1
DA:22,12
DA:24,12
DA:25,12
DA:27,4
DA:29,8
DA:32,12
DA:34,12
LF:11
LH:11
end_of_record
TN:
SF:/home/usr/Sources/SDK/IO.SDK/Maneuvers/Attitudes/RetrogradeAttitude.cpp
FN:14,_ZN2IO3SDK9Maneuvers9Attitudes18RetrogradeAttitudeC2ERKSt6vectorINS0_4Body10Spacecraft6EngineESaIS7_EERNS0_11Propagators10PropagatorERKNS0_4Time8TimeSpanE
FN:18,_ZN2IO3SDK9Maneuvers9Attitudes18RetrogradeAttitudeC2ERKSt6vectorINS0_4Body10Spacecraft6EngineESaIS7_EERNS0_11Propagators10PropagatorERKNS0_4Time3TDBERKNSF_8TimeSpanE
FN:22,_ZN2IO3SDK9Maneuvers9Attitudes18RetrogradeAttitude7ComputeERKNS0_17OrbitalParameters17OrbitalParametersE
FN:27,_ZN2IO3SDK9Maneuvers9Attitudes18RetrogradeAttitude18ComputeOrientationERKNS0_17OrbitalParameters17OrbitalParametersE
FN:32,_ZN2IO3SDK9Maneuvers9Attitudes18RetrogradeAttitude10CanExecuteERKNS0_17OrbitalParameters17OrbitalParametersE
FNDA:12,_ZN2IO3SDK9Maneuvers9Attitudes18RetrogradeAttitude7ComputeERKNS0_17OrbitalParameters17OrbitalParametersE
FNDA:1,_ZN2IO3SDK9Maneuvers9Attitudes18RetrogradeAttitudeC2ERKSt6vectorINS0_4Body10Spacecraft6EngineESaIS7_EERNS0_11Propagators10PropagatorERKNS0_4Time3TDBERKNSF_8TimeSpanE
FNDA:12,_ZN2IO3SDK9Maneuvers9Attitudes18RetrogradeAttitude10CanExecuteERKNS0_17OrbitalParameters17OrbitalParametersE
FNDA:1,_ZN2IO3SDK9Maneuvers9Attitudes18RetrogradeAttitudeC2ERKSt6vectorINS0_4Body10Spacecraft6EngineESaIS7_EERNS0_11Propagators10PropagatorERKNS0_4Time8TimeSpanE
FNDA:4,_ZN2IO3SDK9Maneuvers9Attitudes18RetrogradeAttitude18ComputeOrientationERKNS0_17OrbitalParameters17OrbitalParametersE
FNF:5
FNH:5
DA:14,1
DA:16,1
DA:18,1
DA:20,1
DA:22,12
DA:24,12
DA:25,12
DA:27,4
DA:29,8
DA:32,12
DA:34,12
LF:11
LH:11
end_of_record
TN:
SF:/home/usr/Sources/SDK/IO.SDK/Maneuvers/Attitudes/TowardObjectAttitude.cpp
FN:14,_ZN2IO3SDK9Maneuvers9Attitudes20TowardObjectAttitudeC2ERKSt6vectorINS0_4Body10Spacecraft6EngineESaIS7_EERNS0_11Propagators10PropagatorERKNS0_4Time8TimeSpanERKNS5_4BodyE
FN:18,_ZN2IO3SDK9Maneuvers9Attitudes20TowardObjectAttitudeC2ERKSt6vectorINS0_4Body10Spacecraft6EngineESaIS7_EERNS0_11Propagators10PropagatorERKNS0_4Time3TDBERKNSF_8TimeSpanERKNS5_4BodyE
FN:22,_ZN2IO3SDK9Maneuvers9Attitudes20TowardObjectAttitude7ComputeERKNS0_17OrbitalParameters17OrbitalParametersE
FN:27,_ZN2IO3SDK9Maneuvers9Attitudes20TowardObjectAttitude18ComputeOrientationERKNS0_17OrbitalParameters17OrbitalParametersE
FN:34,_ZN2IO3SDK9Maneuvers9Attitudes20TowardObjectAttitude10CanExecuteERKNS0_17OrbitalParameters17OrbitalParametersE
FNDA:1,_ZN2IO3SDK9Maneuvers9Attitudes20TowardObjectAttitudeC2ERKSt6vectorINS0_4Body10Spacecraft6EngineESaIS7_EERNS0_11Propagators10PropagatorERKNS0_4Time3TDBERKNSF_8TimeSpanERKNS5_4BodyE
FNDA:4,_ZN2IO3SDK9Maneuvers9Attitudes20TowardObjectAttitude18ComputeOrientationERKNS0_17OrbitalParameters17OrbitalParametersE
FNDA:12,_ZN2IO3SDK9Maneuvers9Attitudes20TowardObjectAttitude7ComputeERKNS0_17OrbitalParameters17OrbitalParametersE
FNDA:1,_ZN2IO3SDK9Maneuvers9Attitudes20TowardObjectAttitudeC2ERKSt6vectorINS0_4Body10Spacecraft6EngineESaIS7_EERNS0_11Propagators10PropagatorERKNS0_4Time8TimeSpanERKNS5_4BodyE
FNDA:12,_ZN2IO3SDK9Maneuvers9Attitudes20TowardObjectAttitude10CanExecuteERKNS0_17OrbitalParameters17OrbitalParametersE
FNF:5
FNH:5
DA:14,1
DA:16,1
DA:18,1
DA:20,1
DA:22,12
DA:24,12
DA:25,12
DA:27,4
DA:29,4
DA:30,4
DA:31,12
DA:34,12
DA:36,12
LF:13
LH:13
end_of_record
TN:
SF:/home/usr/Sources/SDK/IO.SDK/Maneuvers/Attitudes/ZenithAttitude.cpp
FN:14,_ZN2IO3SDK9Maneuvers9Attitudes14ZenithAttitudeC2ERKSt6vectorINS0_4Body10Spacecraft6EngineESaIS7_EERNS0_11Propagators10PropagatorERKNS0_4Time8TimeSpanE
FN:18,_ZN2IO3SDK9Maneuvers9Attitudes14ZenithAttitudeC2ERKSt6vectorINS0_4Body10Spacecraft6EngineESaIS7_EERNS0_11Propagators10PropagatorERKNS0_4Time3TDBERKNSF_8TimeSpanE
FN:22,_ZN2IO3SDK9Maneuvers9Attitudes14ZenithAttitude7ComputeERKNS0_17OrbitalParameters17OrbitalParametersE
FN:27,_ZN2IO3SDK9Maneuvers9Attitudes14ZenithAttitude18ComputeOrientationERKNS0_17OrbitalParameters17OrbitalParametersE
FN:32,_ZN2IO3SDK9Maneuvers9Attitudes14ZenithAttitude10CanExecuteERKNS0_17OrbitalParameters17OrbitalParametersE
FNDA:1,_ZN2IO3SDK9Maneuvers9Attitudes14ZenithAttitudeC2ERKSt6vectorINS0_4Body10Spacecraft6EngineESaIS7_EERNS0_11Propagators10PropagatorERKNS0_4Time3TDBERKNSF_8TimeSpanE
FNDA:4,_ZN2IO3SDK9Maneuvers9Attitudes14ZenithAttitude18ComputeOrientationERKNS0_17OrbitalParameters17OrbitalParametersE
FNDA:12,_ZN2IO3SDK9Maneuvers9Attitudes14ZenithAttitude7ComputeERKNS0_17OrbitalParameters17OrbitalParametersE
FNDA:1,_ZN2IO3SDK9Maneuvers9Attitudes14ZenithAttitudeC2ERKSt6vectorINS0_4Body10Spacecraft6EngineESaIS7_EERNS0_11Propagators10PropagatorERKNS0_4Time8TimeSpanE
FNDA:12,_ZN2IO3SDK9Maneuvers9Attitudes14ZenithAttitude10CanExecuteERKNS0_17OrbitalParameters17OrbitalParametersE
FNF:5
FNH:5
DA:14,1
DA:16,1
DA:18,1
DA:20,1
DA:22,12
DA:24,12
DA:25,12
DA:27,4
DA:29,8
DA:32,12
DA:34,12
LF:11
LH:11
end_of_record
TN:
SF:/home/usr/Sources/SDK/IO.SDK/Maneuvers/CombinedManeuver.cpp
FN:15,_ZN2IO3SDK9Maneuvers16CombinedManeuverC2ERKSt6vectorINS0_4Body10Spacecraft6EngineESaIS6_EERNS0_11Propagators10PropagatorEdd
FN:19,_ZN2IO3SDK9Maneuvers16CombinedManeuverC2ERKSt6vectorINS0_4Body10Spacecraft6EngineESaIS6_EERNS0_11Propagators10PropagatorEddRKNS0_4Time3TDBE
FN:23,_ZN2IO3SDK9Maneuvers16CombinedManeuver10CanExecuteERKNS0_17OrbitalParameters17OrbitalParametersE
FN:49,_ZN2IO3SDK9Maneuvers16CombinedManeuver7ComputeERKNS0_17OrbitalParameters17OrbitalParametersE
FN:55,_ZN2IO3SDK9Maneuvers16CombinedManeuver18ComputeOrientationERKNS0_17OrbitalParameters17OrbitalParametersE
FN:64,_ZNK2IO3SDK9Maneuvers16CombinedManeuver15IsAscendingNodeERKNS0_17OrbitalParameters11StateVectorE
FN:74,_ZNK2IO3SDK9Maneuvers16CombinedManeuver26IsApproachingAscendingNodeERKNS0_17OrbitalParameters11StateVectorE
FN:91,_ZNK2IO3SDK9Maneuvers16CombinedManeuver9GetDeltaVERKNS0_17OrbitalParameters11StateVectorE
FNDA:6,_ZNK2IO3SDK9Maneuvers16CombinedManeuver9GetDeltaVERKNS0_17OrbitalParameters11StateVectorE
FNDA:2,_ZN2IO3SDK9Maneuvers16CombinedManeuver7ComputeERKNS0_17OrbitalParameters17OrbitalParametersE
FNDA:3,_ZN2IO3SDK9Maneuvers16CombinedManeuverC2ERKSt6vectorINS0_4Body10Spacecraft6EngineESaIS6_EERNS0_11Propagators10PropagatorEdd
FNDA:4,_ZN2IO3SDK9Maneuvers16CombinedManeuver18ComputeOrientationERKNS0_17OrbitalParameters17OrbitalParametersE
FNDA:10,_ZNK2IO3SDK9Maneuvers16CombinedManeuver26IsApproachingAscendingNodeERKNS0_17OrbitalParameters11StateVectorE
FNDA:0,_ZNK2IO3SDK9Maneuvers16CombinedManeuver15IsAscendingNodeERKNS0_17OrbitalParameters11StateVectorE
FNDA:10,_ZN2IO3SDK9Maneuvers16CombinedManeuver10CanExecuteERKNS0_17OrbitalParameters17OrbitalParametersE
FNDA:0,_ZN2IO3SDK9Maneuvers16CombinedManeuverC2ERKSt6vectorINS0_4Body10Spacecraft6EngineESaIS6_EERNS0_11Propagators10PropagatorEddRKNS0_4Time3TDBE
FNF:8
FNH:6
DA:15,3
DA:17,3
DA:19,0
DA:21,0
DA:23,10
DA:26,10
DA:27,10
DA:29,0
DA:32,10
DA:34,10
DA:36,3
DA:37,3
DA:40,7
DA:42,3
DA:43,3
DA:46,4
DA:49,2
DA:52,2
DA:53,2
DA:55,4
DA:57,4
DA:59,4
DA:61,8
DA:64,0
DA:66,0
DA:68,0
DA:71,0
DA:74,10
DA:77,10
DA:80,10
DA:83,10
DA:85,4
DA:88,6
DA:91,6
DA:93,6
DA:94,6
DA:95,6
DA:96,6
DA:99,6
DA:101,2
DA:102,2
DA:105,2
DA:106,2
DA:110,4
DA:111,4
DA:114,6
DA:116,18
LF:47
LH:40
end_of_record
TN:
SF:/home/usr/Sources/SDK/IO.SDK/Maneuvers/DynamicFuelTank.cpp
FN:25,_ZN2IO3SDK9Maneuvers15DynamicFuelTankC2Ev
FN:34,_ZNK2IO3SDK9Maneuvers15DynamicFuelTank13GetRemainingTEd
FNDA:166,_ZNK2IO3SDK9Maneuvers15DynamicFuelTank13GetRemainingTEd
FNDA:41,_ZN2IO3SDK9Maneuvers15DynamicFuelTankC2Ev
FNF:2
FNH:2
DA:25,41
DA:26,41
DA:27,41
DA:34,166
DA:36,166
LF:5
LH:5
end_of_record
TN:
SF:/home/usr/Sources/SDK/IO.SDK/Maneuvers/Launch.cpp
FN:14,_ZN2IO3SDK9Maneuvers6LaunchC2ESt10shared_ptrINS0_5Sites10LaunchSiteEES6_bRKNS0_17OrbitalParameters17OrbitalParametersE
FN:21,_ZN2IO3SDK9Maneuvers6Launch36GetNonInertialAscendingAzimuthLaunchEv
FN:36,_ZN2IO3SDK9Maneuvers6Launch37GetNonInertialDescendingAzimuthLaunchEv
FN:49,_ZN2IO3SDK9Maneuvers6Launch33GetInertialAscendingAzimuthLaunchEv
FN:62,_ZN2IO3SDK9Maneuvers6Launch34GetInertialDescendingAzimuthLaunchEv
FN:75,_ZN2IO3SDK9Maneuvers6Launch31GetNonInertialInsertionVelocityEv
FN:86,_ZN2IO3SDK9Maneuvers6Launch28GetInertialInsertionVelocityEv
FN:91,_ZN2IO3SDK9Maneuvers6Launch16GetLaunchWindowsERKNS0_4Time6WindowINS3_3UTCEEE
FN:145,_ZN2IO3SDK9Maneuvers6Launch17FindLaunchWindowsERKNS0_4Time6WindowINS3_3UTCEEE
FNDA:3,_ZN2IO3SDK9Maneuvers6Launch37GetNonInertialDescendingAzimuthLaunchEv
FNDA:7,_ZN2IO3SDK9Maneuvers6Launch17FindLaunchWindowsERKNS0_4Time6WindowINS3_3UTCEEE
FNDA:40,_ZN2IO3SDK9Maneuvers6Launch33GetInertialAscendingAzimuthLaunchEv
FNDA:7,_ZN2IO3SDK9Maneuvers6Launch31GetNonInertialInsertionVelocityEv
FNDA:37,_ZN2IO3SDK9Maneuvers6Launch28GetInertialInsertionVelocityEv
FNDA:10,_ZN2IO3SDK9Maneuvers6Launch36GetNonInertialAscendingAzimuthLaunchEv
FNDA:15,_ZN2IO3SDK9Maneuvers6LaunchC2ESt10shared_ptrINS0_5Sites10LaunchSiteEES6_bRKNS0_17OrbitalParameters17OrbitalParametersE
FNDA:3,_ZN2IO3SDK9Maneuvers6Launch34GetInertialDescendingAzimuthLaunchEv
FNDA:5,_ZN2IO3SDK9Maneuvers6Launch16GetLaunchWindowsERKNS0_4Time6WindowINS3_3UTCEEE
FNF:9
FNH:9
DA:14,15
DA:16,15
DA:18,15
DA:19,15
DA:21,10
DA:23,10
DA:25,8
DA:26,8
DA:27,8
DA:28,8
DA:30,1
DA:33,10
DA:36,3
DA:38,3
DA:40,3
DA:41,3
DA:43,0
DA:46,3
DA:49,40
DA:51,40
DA:53,13
DA:54,13
DA:56,3
DA:59,40
DA:62,3
DA:64,3
DA:66,3
DA:67,3
DA:69,0
DA:72,3
DA:75,7
DA:77,7
DA:79,7
DA:80,7
DA:81,7
DA:83,7
DA:86,37
DA:88,37
DA:91,5
DA:93,5
DA:94,5
DA:97,6
DA:98,3
DA:100,0
DA:104,6
DA:105,3
DA:107,0
DA:111,6
DA:112,8
DA:114,14
DA:116,9
DA:118,5
DA:119,5
DA:124,3
DA:126,0
DA:130,8
DA:132,5
DA:133,5
DA:138,2
DA:139,2
DA:142,5
DA:145,7
DA:148,14
DA:151,7
DA:154,7
DA:156,7
DA:159,114
DA:161,112
DA:164,112
DA:167,112
DA:169,77
DA:171,77
DA:175,112
DA:179,5
DA:180,5
DA:183,5
DA:184,5
DA:187,5
DA:188,5
DA:190,3
DA:191,3
DA:192,3
DA:196,2
DA:197,2
DA:201,15
DA:202,5
DA:205,5
DA:208,5
DA:209,5
DA:212,5
DA:214,7
DA:217,2
DA:219,2
DA:221,2
DA:223,0
DA:229,2
DA:232,6
DA:234,2
DA:236,2
DA:240,0
DA:243,5
DA:247,14
LF:102
LH:95
end_of_record
TN:
SF:/home/usr/Sources/SDK/IO.SDK/Maneuvers/LaunchWindow.cpp
FN:13,_ZN2IO3SDK9Maneuvers12LaunchWindowC2ERKSt10shared_ptrINS0_5Sites10LaunchSiteEERKNS0_4Time6WindowINS9_3UTCEEEdddd
FN:17,_ZN2IO3SDK9Maneuvers12LaunchWindowaSERKS2_
FN:32,_ZNK2IO3SDK9Maneuvers12LaunchWindow13GetLaunchSiteEv
FN:37,_ZNK2IO3SDK9Maneuvers12LaunchWindow9GetWindowEv
FN:42,_ZNK2IO3SDK9Maneuvers12LaunchWindow18GetInertialAzimuthEv
FN:46,_ZNK2IO3SDK9Maneuvers12LaunchWindow21GetNonInertialAzimuthEv
FN:50,_ZNK2IO3SDK9Maneuvers12LaunchWindow28GetInertialInsertionVelocityEv
FN:54,_ZNK2IO3SDK9Maneuvers12LaunchWindow31GetNonInertialInsertionVelocityEv
FNDA:8,_ZNK2IO3SDK9Maneuvers12LaunchWindow13GetLaunchSiteEv
FNDA:10,_ZN2IO3SDK9Maneuvers12LaunchWindowC2ERKSt10shared_ptrINS0_5Sites10LaunchSiteEERKNS0_4Time6WindowINS9_3UTCEEEdddd
FNDA:10,_ZNK2IO3SDK9Maneuvers12LaunchWindow18GetInertialAzimuthEv
FNDA:10,_ZNK2IO3SDK9Maneuvers12LaunchWindow28GetInertialInsertionVelocityEv
FNDA:10,_ZNK2IO3SDK9Maneuvers12LaunchWindow21GetNonInertialAzimuthEv
FNDA:1,_ZN2IO3SDK9Maneuvers12LaunchWindowaSERKS2_
FNDA:10,_ZNK2IO3SDK9Maneuvers12LaunchWindow9GetWindowEv
FNDA:10,_ZNK2IO3SDK9Maneuvers12LaunchWindow31GetNonInertialInsertionVelocityEv
FNF:8
FNH:8
DA:13,10
DA:15,10
DA:17,1
DA:20,1
DA:21,0
DA:23,1
DA:24,1
DA:25,1
DA:26,1
DA:27,1
DA:28,1
DA:29,1
DA:32,8
DA:34,8
DA:37,10
DA:39,10
DA:42,10
DA:44,10
DA:46,10
DA:48,10
DA:50,10
DA:52,10
DA:54,10
DA:56,10
LF:24
LH:23
end_of_record
TN:
SF:/home/usr/Sources/SDK/IO.SDK/Maneuvers/ManeuverBase.cpp
FN:16,_ZN2IO3SDK9Maneuvers12ManeuverBaseC2ERKSt6vectorINS0_4Body10Spacecraft6EngineESaIS6_EERNS0_11Propagators10PropagatorE
FN:31,_ZN2IO3SDK9Maneuvers12ManeuverBaseC2ERKSt6vectorINS0_4Body10Spacecraft6EngineESaIS6_EERNS0_11Propagators10PropagatorERKNS0_4Time8TimeSpanE
FN:36,_ZN2IO3SDK9Maneuvers12ManeuverBaseC2ERKSt6vectorINS0_4Body10Spacecraft6EngineESaIS6_EERNS0_11Propagators10PropagatorERKNS0_4Time3TDBE
FN:41,_ZN2IO3SDK9Maneuvers12ManeuverBaseC2ERKSt6vectorINS0_4Body10Spacecraft6EngineESaIS6_EERNS0_11Propagators10PropagatorERKNS0_4Time3TDBERKNSE_8TimeSpanE
FN:46,_ZN2IO3SDK9Maneuvers12ManeuverBase6HandleERKNS0_4Time3TDBE
FN:64,_ZN2IO3SDK9Maneuvers12ManeuverBase10TryExecuteERKNS0_17OrbitalParameters17OrbitalParametersE
FN:116,_ZN2IO3SDK9Maneuvers12ManeuverBase8ValidateEv
FN:131,_ZN2IO3SDK9Maneuvers12ManeuverBase9ExecuteAtERKNS0_17OrbitalParameters17OrbitalParametersE
FN:206,_ZN2IO3SDK9Maneuvers12ManeuverBase7IsValidEv
FN:211,_ZN2IO3SDK9Maneuvers12ManeuverBase15SetNextManeuverERS2_
FN:217,_ZNK2IO3SDK9Maneuvers12ManeuverBase15GetThrustWindowEv
FN:222,_ZNK2IO3SDK9Maneuvers12ManeuverBase17GetAttitudeWindowEv
FN:227,_ZNK2IO3SDK9Maneuvers12ManeuverBase17GetManeuverWindowEv
FN:232,_ZN2IO3SDK9Maneuvers12ManeuverBase12SpreadThrustEv
FN:287,_ZN2IO3SDK9Maneuvers12ManeuverBase23GetRemainingAvgFuelFlowEv
FN:302,_ZN2IO3SDK9Maneuvers12ManeuverBase18GetRemainingAvgISPEv
FN:316,_ZN2IO3SDK9Maneuvers12ManeuverBase33GetMinimumRemainingThrustDurationEv
FN:334,_ZN2IO3SDK9Maneuvers12ManeuverBase4BurnERKNS0_4Time8TimeSpanE
FN:348,_ZNK2IO3SDK9Maneuvers12ManeuverBase17GetThrustDurationEv
FN:353,_ZNK2IO3SDK9Maneuvers12ManeuverBase9GetDeltaVEv
FN:358,_ZNK2IO3SDK9Maneuvers12ManeuverBase13GetFuelBurnedEv
FNDA:80,_ZN2IO3SDK9Maneuvers12ManeuverBase8ValidateEv
FNDA:320,_ZN2IO3SDK9Maneuvers12ManeuverBase23GetRemainingAvgFuelFlowEv
FNDA:1,_ZN2IO3SDK9Maneuvers12ManeuverBase15SetNextManeuverERS2_
FNDA:5,_ZNK2IO3SDK9Maneuvers12ManeuverBase17GetThrustDurationEv
FNDA:5,_ZN2IO3SDK9Maneuvers12ManeuverBaseC2ERKSt6vectorINS0_4Body10Spacecraft6EngineESaIS6_EERNS0_11Propagators10PropagatorERKNS0_4Time3TDBE
FNDA:52,_ZNK2IO3SDK9Maneuvers12ManeuverBase9GetDeltaVEv
FNDA:80,_ZN2IO3SDK9Maneuvers12ManeuverBase4BurnERKNS0_4Time8TimeSpanE
FNDA:19,_ZNK2IO3SDK9Maneuvers12ManeuverBase15GetThrustWindowEv
FNDA:340870,_ZN2IO3SDK9Maneuvers12ManeuverBase10TryExecuteERKNS0_17OrbitalParameters17OrbitalParametersE
FNDA:80,_ZN2IO3SDK9Maneuvers12ManeuverBase33GetMinimumRemainingThrustDurationEv
FNDA:3,_ZNK2IO3SDK9Maneuvers12ManeuverBase17GetAttitudeWindowEv
FNDA:3,_ZN2IO3SDK9Maneuvers12ManeuverBase6HandleERKNS0_4Time3TDBE
FNDA:79,_ZN2IO3SDK9Maneuvers12ManeuverBase9ExecuteAtERKNS0_17OrbitalParameters17OrbitalParametersE
FNDA:79,_ZN2IO3SDK9Maneuvers12ManeuverBase12SpreadThrustEv
FNDA:0,_ZN2IO3SDK9Maneuvers12ManeuverBase7IsValidEv
FNDA:5,_ZN2IO3SDK9Maneuvers12ManeuverBaseC2ERKSt6vectorINS0_4Body10Spacecraft6EngineESaIS6_EERNS0_11Propagators10PropagatorERKNS0_4Time3TDBERKNSE_8TimeSpanE
FNDA:5,_ZN2IO3SDK9Maneuvers12ManeuverBaseC2ERKSt6vectorINS0_4Body10Spacecraft6EngineESaIS6_EERNS0_11Propagators10PropagatorERKNS0_4Time8TimeSpanE
FNDA:6,_ZNK2IO3SDK9Maneuvers12ManeuverBase13GetFuelBurnedEv
FNDA:13,_ZNK2IO3SDK9Maneuvers12ManeuverBase17GetManeuverWindowEv
FNDA:240,_ZN2IO3SDK9Maneuvers12ManeuverBase18GetRemainingAvgISPEv
FNDA:39,_ZN2IO3SDK9Maneuvers12ManeuverBaseC2ERKSt6vectorINS0_4Body10Spacecraft6EngineESaIS6_EERNS0_11Propagators10PropagatorE
FNF:21
FNH:20
DA:16,39
DA:17,39
DA:19,80
DA:21,41
DA:25,80
DA:27,41
DA:29,39
DA:31,5
DA:33,5
DA:34,5
DA:36,5
DA:38,5
DA:39,5
DA:41,5
DA:43,5
DA:44,5
DA:46,3
DA:48,3
DA:51,0
DA:53,0
DA:59,3
DA:61,3
DA:62,3
DA:64,340870
DA:66,340870
DA:71,340870
DA:74,340790
DA:78,80
DA:81,132
DA:83,80
DA:85,1
DA:86,1
DA:90,79
DA:92,27
DA:95,1
DA:99,26
DA:102,27
DA:104,681684
DA:106,340842
DA:108,0
DA:110,0
DA:113,340869
DA:116,80
DA:119,80
DA:122,80
DA:124,2
DA:125,1
DA:127,79
DA:128,79
DA:131,79
DA:134,79
DA:137,79
DA:140,79
DA:143,79
DA:145,60
DA:149,19
DA:152,79
DA:154,52
DA:158,27
DA:162,27
DA:164,27
DA:166,1
DA:170,54
DA:173,54
DA:176,27
DA:180,81
DA:184,27
DA:187,27
DA:190,27
DA:193,54
DA:196,54
DA:199,27
DA:202,27
DA:204,27
DA:206,0
DA:208,0
DA:211,1
DA:213,1
DA:214,1
DA:217,19
DA:219,19
DA:222,3
DA:224,3
DA:227,13
DA:229,13
DA:232,79
DA:234,79
DA:236,0
DA:239,79
DA:240,79
DA:241,79
DA:244,79
DA:251,80
DA:255,80
DA:258,1
DA:261,1
DA:264,1
DA:267,1
DA:270,1
DA:273,1
DA:275,1
DA:277,79
DA:278,1
DA:281,79
DA:284,79
DA:287,320
DA:289,320
DA:291,654
DA:293,334
DA:295,332
DA:299,320
DA:302,240
DA:304,240
DA:305,490
DA:307,250
DA:309,249
DA:313,240
DA:316,80
DA:318,80
DA:320,164
DA:322,84
DA:324,83
DA:326,83
DA:331,80
DA:334,80
DA:336,80
DA:337,164
DA:339,84
DA:341,83
DA:345,80
DA:348,5
DA:350,5
DA:353,52
DA:355,52
DA:358,6
DA:360,6
LF:136
LH:129
end_of_record
TN:
SF:/home/usr/Sources/SDK/IO.SDK/Maneuvers/ManeuverBase.h
FNF:0
FNH:0
DA:113,39
DA:124,39
LF:2
LH:2
end_of_record
TN:
SF:/home/usr/Sources/SDK/IO.SDK/Maneuvers/ManeuverResult.h
FN:35,_ZN2IO3SDK9Maneuvers14ManeuverResultC2Ev
FN:43,_ZN2IO3SDK9Maneuvers14ManeuverResultC2EbNSt7__cxx1112basic_stringIcSt11char_traitsIcESaIcEEE
FN:50,_ZN2IO3SDK9Maneuvers14ManeuverResult8SetValidERKNSt7__cxx1112basic_stringIcSt11char_traitsIcESaIcEEE
FN:61,_ZN2IO3SDK9Maneuvers14ManeuverResult10SetInvalidERKNSt7__cxx1112basic_stringIcSt11char_traitsIcESaIcEEE
FN:73,_ZN2IO3SDK9Maneuvers14ManeuverResult7IsValidEv
FN:81,_ZN2IO3SDK9Maneuvers14ManeuverResult13CanRetryLaterEv
FN:92,_ZN2IO3SDK9Maneuvers14ManeuverResult18IsExecutedTooEarlyEv
FN:94,_ZN2IO3SDK9Maneuvers14ManeuverResult11SetTooEarlyEv
FN:106,_ZN2IO3SDK9Maneuvers14ManeuverResult10GetMessageB5cxx11Ev
FNDA:340950,_ZN2IO3SDK9Maneuvers14ManeuverResult7IsValidEv
FNDA:340842,_ZN2IO3SDK9Maneuvers14ManeuverResult13CanRetryLaterEv
FNDA:1,_ZN2IO3SDK9Maneuvers14ManeuverResult10SetInvalidERKNSt7__cxx1112basic_stringIcSt11char_traitsIcESaIcEEE
FNDA:1,_ZN2IO3SDK9Maneuvers14ManeuverResult18IsExecutedTooEarlyEv
FNDA:80,_ZN2IO3SDK9Maneuvers14ManeuverResultC2EbNSt7__cxx1112basic_stringIcSt11char_traitsIcESaIcEEE
FNDA:27,_ZN2IO3SDK9Maneuvers14ManeuverResult8SetValidERKNSt7__cxx1112basic_stringIcSt11char_traitsIcESaIcEEE
FNDA:340842,_ZN2IO3SDK9Maneuvers14ManeuverResult11SetTooEarlyEv
FNDA:2,_ZN2IO3SDK9Maneuvers14ManeuverResult10GetMessageB5cxx11Ev
FNDA:340870,_ZN2IO3SDK9Maneuvers14ManeuverResultC2Ev
FNF:9
FNH:9
DA:35,340870
DA:43,80
DA:50,27
DA:52,27
DA:53,27
DA:54,27
DA:61,1
DA:63,1
DA:64,1
DA:65,1
DA:73,340950
DA:81,340842
DA:83,340842
DA:92,1
DA:94,340842
DA:96,340842
DA:97,340842
DA:98,340842
DA:99,340842
DA:106,2
LF:20
LH:20
end_of_record
TN:
SF:/home/usr/Sources/SDK/IO.SDK/Maneuvers/OrbitalPlaneChangingManeuver.cpp
FN:16,_ZN2IO3SDK9Maneuvers28OrbitalPlaneChangingManeuverC2ERKSt6vectorINS0_4Body10Spacecraft6EngineESaIS6_EERNS0_11Propagators10PropagatorEPNS0_17OrbitalParameters17OrbitalParametersE
FN:20,_ZN2IO3SDK9Maneuvers28OrbitalPlaneChangingManeuverC2ERKSt6vectorINS0_4Body10Spacecraft6EngineESaIS6_EERNS0_11Propagators10PropagatorEPNS0_17OrbitalParameters17OrbitalParametersERKNS0_4Time3TDBE
FN:24,_ZN2IO3SDK9Maneuvers28OrbitalPlaneChangingManeuver10CanExecuteERKNS0_17OrbitalParameters17OrbitalParametersE
FN:43,_ZN2IO3SDK9Maneuvers28OrbitalPlaneChangingManeuver7ComputeERKNS0_17OrbitalParameters17OrbitalParametersE
FN:76,_ZN2IO3SDK9Maneuvers28OrbitalPlaneChangingManeuver18ComputeOrientationERKNS0_17OrbitalParameters17OrbitalParametersE
FN:89,_ZNK2IO3SDK9Maneuvers28OrbitalPlaneChangingManeuver15IsAscendingNodeERKNS0_17OrbitalParameters11StateVectorE
FN:104,_ZNK2IO3SDK9Maneuvers28OrbitalPlaneChangingManeuver26IsApproachingAscendingNodeERKNS0_17OrbitalParameters11StateVectorE
FN:126,_ZNK2IO3SDK9Maneuvers28OrbitalPlaneChangingManeuver22GetRelativeInclinationEv
FNDA:2,_ZNK2IO3SDK9Maneuvers28OrbitalPlaneChangingManeuver22GetRelativeInclinationEv
FNDA:5,_ZN2IO3SDK9Maneuvers28OrbitalPlaneChangingManeuver7ComputeERKNS0_17OrbitalParameters17OrbitalParametersE
FNDA:71789,_ZNK2IO3SDK9Maneuvers28OrbitalPlaneChangingManeuver26IsApproachingAscendingNodeERKNS0_17OrbitalParameters11StateVectorE
FNDA:8,_ZN2IO3SDK9Maneuvers28OrbitalPlaneChangingManeuver18ComputeOrientationERKNS0_17OrbitalParameters17OrbitalParametersE
FNDA:0,_ZN2IO3SDK9Maneuvers28OrbitalPlaneChangingManeuverC2ERKSt6vectorINS0_4Body10Spacecraft6EngineESaIS6_EERNS0_11Propagators10PropagatorEPNS0_17OrbitalParameters17OrbitalParametersERKNS0_4Time3TDBE
FNDA:9,_ZN2IO3SDK9Maneuvers28OrbitalPlaneChangingManeuverC2ERKSt6vectorINS0_4Body10Spacecraft6EngineESaIS6_EERNS0_11Propagators10PropagatorEPNS0_17OrbitalParameters17OrbitalParametersE
FNDA:19,_ZNK2IO3SDK9Maneuvers28OrbitalPlaneChangingManeuver15IsAscendingNodeERKNS0_17OrbitalParameters11StateVectorE
FNDA:71789,_ZN2IO3SDK9Maneuvers28OrbitalPlaneChangingManeuver10CanExecuteERKNS0_17OrbitalParameters17OrbitalParametersE
FNF:8
FNH:7
DA:16,9
DA:18,9
DA:20,0
DA:22,0
DA:24,71789
DA:26,71789
DA:28,71789
DA:30,6
DA:31,6
DA:34,71783
DA:36,9
DA:37,9
DA:40,71774
DA:43,5
DA:45,5
DA:47,5
DA:48,5
DA:51,5
DA:54,5
DA:56,5
DA:58,5
DA:60,1
DA:64,5
DA:67,5
DA:70,5
DA:73,5
DA:74,5
DA:76,8
DA:78,8
DA:79,8
DA:81,0
DA:84,8
DA:86,16
DA:89,19
DA:91,19
DA:93,0
DA:95,19
DA:96,19
DA:98,4
DA:101,15
DA:104,71789
DA:106,71789
DA:108,0
DA:112,71789
DA:115,71789
DA:118,71789
DA:120,11
DA:123,71778
DA:126,2
DA:128,2
LF:50
LH:45
end_of_record
TN:
SF:/home/usr/Sources/SDK/IO.SDK/Maneuvers/PerigeeHeightChangingManeuver.cpp
FN:15,_ZN2IO3SDK9Maneuvers29PerigeeHeightChangingManeuverC2ERKSt6vectorINS0_4Body10Spacecraft6EngineESaIS6_EERNS0_11Propagators10PropagatorEd
FN:19,_ZN2IO3SDK9Maneuvers29PerigeeHeightChangingManeuverC2ERKSt6vectorINS0_4Body10Spacecraft6EngineESaIS6_EERNS0_11Propagators10PropagatorEdRKNS0_4Time3TDBE
FN:24,_ZN2IO3SDK9Maneuvers29PerigeeHeightChangingManeuver7ComputeERKNS0_17OrbitalParameters17OrbitalParametersE
FN:31,_ZN2IO3SDK9Maneuvers29PerigeeHeightChangingManeuver18ComputeOrientationERKNS0_17OrbitalParameters17OrbitalParametersE
FN:45,_ZN2IO3SDK9Maneuvers29PerigeeHeightChangingManeuver10CanExecuteERKNS0_17OrbitalParameters17OrbitalParametersE
FN:75,_ZNK2IO3SDK9Maneuvers29PerigeeHeightChangingManeuver19IsApproachingApogeeERKNS0_17OrbitalParameters11StateVectorE
FNDA:3,_ZN2IO3SDK9Maneuvers29PerigeeHeightChangingManeuverC2ERKSt6vectorINS0_4Body10Spacecraft6EngineESaIS6_EERNS0_11Propagators10PropagatorEd
FNDA:2,_ZN2IO3SDK9Maneuvers29PerigeeHeightChangingManeuver7ComputeERKNS0_17OrbitalParameters17OrbitalParametersE
FNDA:6,_ZN2IO3SDK9Maneuvers29PerigeeHeightChangingManeuver10CanExecuteERKNS0_17OrbitalParameters17OrbitalParametersE
FNDA:0,_ZN2IO3SDK9Maneuvers29PerigeeHeightChangingManeuverC2ERKSt6vectorINS0_4Body10Spacecraft6EngineESaIS6_EERNS0_11Propagators10PropagatorEdRKNS0_4Time3TDBE
FNDA:6,_ZN2IO3SDK9Maneuvers29PerigeeHeightChangingManeuver18ComputeOrientationERKNS0_17OrbitalParameters17OrbitalParametersE
FNDA:4,_ZNK2IO3SDK9Maneuvers29PerigeeHeightChangingManeuver19IsApproachingApogeeERKNS0_17OrbitalParameters11StateVectorE
FNF:6
FNH:5
DA:15,3
DA:17,3
DA:19,0
DA:21,0
DA:24,2
DA:26,2
DA:27,2
DA:28,2
DA:29,2
DA:31,6
DA:33,6
DA:34,6
DA:37,6
DA:39,1
DA:42,12
DA:45,6
DA:47,6
DA:49,2
DA:52,4
DA:55,4
DA:58,1
DA:59,1
DA:63,3
DA:66,1
DA:69,1
DA:72,2
DA:75,4
DA:78,4
DA:81,4
DA:83,2
DA:86,2
LF:31
LH:29
end_of_record
TN:
SF:/home/usr/Sources/SDK/IO.SDK/Maneuvers/PhasingManeuver.cpp
FN:18,_ZN2IO3SDK9Maneuvers15PhasingManeuverC2ERKSt6vectorINS0_4Body10Spacecraft6EngineESaIS6_EERNS0_11Propagators10PropagatorEjPNS0_17OrbitalParameters17OrbitalParametersE
FN:28,_ZN2IO3SDK9Maneuvers15PhasingManeuverC2ERKSt6vectorINS0_4Body10Spacecraft6EngineESaIS6_EERNS0_11Propagators10PropagatorEjPNS0_17OrbitalParameters17OrbitalParametersERKNS0_4Time3TDBE
FN:38,_ZN2IO3SDK9Maneuvers15PhasingManeuver7ComputeERKNS0_17OrbitalParameters17OrbitalParametersE
FN:65,_ZN2IO3SDK9Maneuvers15PhasingManeuver18ComputeOrientationERKNS0_17OrbitalParameters17OrbitalParametersE
FN:73,_ZN2IO3SDK9Maneuvers15PhasingManeuver10CanExecuteERKNS0_17OrbitalParameters17OrbitalParametersE
FN:103,_ZNK2IO3SDK9Maneuvers15PhasingManeuver20IsApproachingPerigeeERKNS0_17OrbitalParameters11StateVectorE
FNDA:0,_ZN2IO3SDK9Maneuvers15PhasingManeuverC2ERKSt6vectorINS0_4Body10Spacecraft6EngineESaIS6_EERNS0_11Propagators10PropagatorEjPNS0_17OrbitalParameters17OrbitalParametersERKNS0_4Time3TDBE
FNDA:8,_ZN2IO3SDK9Maneuvers15PhasingManeuver10CanExecuteERKNS0_17OrbitalParameters17OrbitalParametersE
FNDA:3,_ZN2IO3SDK9Maneuvers15PhasingManeuverC2ERKSt6vectorINS0_4Body10Spacecraft6EngineESaIS6_EERNS0_11Propagators10PropagatorEjPNS0_17OrbitalParameters17OrbitalParametersE
FNDA:2,_ZN2IO3SDK9Maneuvers15PhasingManeuver7ComputeERKNS0_17OrbitalParameters17OrbitalParametersE
FNDA:6,_ZNK2IO3SDK9Maneuvers15PhasingManeuver20IsApproachingPerigeeERKNS0_17OrbitalParameters11StateVectorE
FNDA:6,_ZN2IO3SDK9Maneuvers15PhasingManeuver18ComputeOrientationERKNS0_17OrbitalParameters17OrbitalParametersE
FNF:6
FNH:5
DA:18,3
DA:20,3
DA:22,0
DA:25,3
DA:26,3
DA:28,0
DA:30,0
DA:32,0
DA:35,0
DA:36,0
DA:38,2
DA:40,2
DA:41,2
DA:43,2
DA:44,2
DA:45,2
DA:47,2
DA:49,2
DA:51,2
DA:53,2
DA:54,2
DA:56,2
DA:58,2
DA:60,2
DA:62,2
DA:63,2
DA:65,6
DA:68,6
DA:70,12
DA:73,8
DA:75,8
DA:77,2
DA:80,6
DA:83,6
DA:86,1
DA:87,1
DA:91,5
DA:94,2
DA:97,2
DA:100,3
DA:103,6
DA:106,6
DA:109,6
DA:111,3
DA:114,3
LF:45
LH:39
end_of_record
TN:
SF:/home/usr/Sources/SDK/IO.SDK/Math/Matrix.cpp
FN:14,_ZN2IO3SDK4Math6MatrixC2ERKS2_
FN:25,_ZN2IO3SDK4Math6MatrixD2Ev
FN:33,_ZNK2IO3SDK4Math6Matrix8GetValueEmm
FN:47,_ZN2IO3SDK4Math6Matrix8SetValueEmmd
FN:60,_ZN2IO3SDK4Math6Matrix8MultiplyERKS2_
FN:85,_ZNK2IO3SDK4Math6Matrix9TransposeEv
FN:101,_ZNK2IO3SDK4Math6Matrix10GetRawDataEv
FNDA:294,_ZN2IO3SDK4Math6MatrixD2Ev
FNDA:1,_ZNK2IO3SDK4Math6Matrix9TransposeEv
FNDA:19,_ZN2IO3SDK4Math6Matrix8SetValueEmmd
FNDA:7105,_ZNK2IO3SDK4Math6Matrix8GetValueEmm
FNDA:1,_ZN2IO3SDK4Math6MatrixC2ERKS2_
FNDA:2,_ZNK2IO3SDK4Math6Matrix10GetRawDataEv
FNDA:1,_ZN2IO3SDK4Math6Matrix8MultiplyERKS2_
FNF:7
FNH:7
DA:14,1
DA:16,3
DA:18,6
DA:20,4
DA:23,1
DA:25,588
DA:27,1673
DA:28,1379
DA:30,294
DA:31,294
DA:33,7105
DA:35,7105
DA:37,1
DA:39,7104
DA:41,1
DA:44,7103
DA:47,19
DA:49,19
DA:51,1
DA:53,18
DA:55,1
DA:57,17
DA:58,17
DA:60,1
DA:62,1
DA:64,0
DA:67,1
DA:69,3
DA:71,6
DA:73,4
DA:74,12
DA:76,8
DA:78,4
DA:82,1
DA:85,1
DA:88,1
DA:90,3
DA:92,6
DA:94,4
DA:98,1
DA:101,2
DA:103,2
LF:42
LH:41
end_of_record
TN:
SF:/home/usr/Sources/SDK/IO.SDK/Math/Matrix.h
FN:35,_ZN2IO3SDK4Math6MatrixC2Emm
FN:51,_ZN2IO3SDK4Math6MatrixC2EmmPPd
FN:84,_ZNK2IO3SDK4Math6Matrix13GetColumsSizeEv
FN:90,_ZNK2IO3SDK4Math6Matrix11GetRowsSizeEv
FNDA:284,_ZN2IO3SDK4Math6MatrixC2EmmPPd
FNDA:1,_ZNK2IO3SDK4Math6Matrix11GetRowsSizeEv
FNDA:294,_ZN2IO3SDK4Math6MatrixC2Emm
FNDA:1,_ZNK2IO3SDK4Math6Matrix13GetColumsSizeEv
FNF:4
FNH:4
DA:35,294
DA:37,294
DA:39,1673
DA:41,8535
DA:43,294
DA:51,284
DA:53,1640
DA:55,8448
DA:57,7092
DA:60,284
DA:84,1
DA:90,1
LF:12
LH:12
end_of_record
TN:
SF:/home/usr/Sources/SDK/IO.SDK/Math/Quaternion.cpp
FN:15,_ZN2IO3SDK4Math10QuaternionC2Ev
FN:19,_ZN2IO3SDK4Math10QuaternionC2Edddd
FN:23,_ZN2IO3SDK4Math10QuaternionC2ERKNS1_8Vector3DEd
FN:33,_ZN2IO3SDK4Math10QuaternionC2ERKNS1_6MatrixE
FN:54,_ZN2IO3SDK4Math10QuaternionC2ERKS2_
FN:59,_ZNK2IO3SDK4Math10Quaternion8MultiplyERKS2_
FN:64,_ZNK2IO3SDK4Math10QuaternionmlERKS2_
FN:73,_ZNK2IO3SDK4Math10Quaternion9GetMatrixEv
FN:96,_ZNK2IO3SDK4Math10Quaternion9MagnitudeEv
FN:101,_ZNK2IO3SDK4Math10Quaternion9NormalizeEv
FN:107,_ZNK2IO3SDK4Math10Quaternion9ConjugateEv
FN:112,_ZN2IO3SDK4Math10QuaternionaSERKS2_
FNDA:53,_ZN2IO3SDK4Math10QuaternionC2Ev
FNDA:725,_ZN2IO3SDK4Math10QuaternionC2ERKNS1_8Vector3DEd
FNDA:2,_ZNK2IO3SDK4Math10Quaternion9NormalizeEv
FNDA:2,_ZNK2IO3SDK4Math10QuaternionmlERKS2_
FNDA:6489,_ZN2IO3SDK4Math10QuaternionC2ERKS2_
FNDA:2,_ZN2IO3SDK4Math10QuaternionaSERKS2_
FNDA:6582,_ZN2IO3SDK4Math10QuaternionC2Edddd
FNDA:1,_ZNK2IO3SDK4Math10Quaternion8MultiplyERKS2_
FNDA:1,_ZNK2IO3SDK4Math10Quaternion9GetMatrixEv
FNDA:14,_ZN2IO3SDK4Math10QuaternionC2ERKNS1_6MatrixE
FNDA:1,_ZNK2IO3SDK4Math10Quaternion9ConjugateEv
FNDA:3,_ZNK2IO3SDK4Math10Quaternion9MagnitudeEv
FNF:12
FNH:12
DA:15,53
DA:17,53
DA:19,6582
DA:21,6582
DA:23,725
DA:25,725
DA:26,725
DA:27,725
DA:28,725
DA:29,725
DA:30,725
DA:31,725
DA:33,14
DA:35,14
DA:37,56
DA:39,168
DA:41,126
DA:46,14
DA:48,14
DA:49,14
DA:50,14
DA:51,14
DA:52,14
DA:54,6489
DA:57,6489
DA:59,1
DA:61,1
DA:64,2
DA:66,2
DA:67,2
DA:69,2
DA:70,4
DA:73,1
DA:76,1
DA:77,1
DA:79,1
DA:80,4
DA:82,12
DA:85,4
DA:87,12
DA:89,9
DA:93,2
DA:96,3
DA:98,3
DA:101,2
DA:103,2
DA:104,2
DA:107,1
DA:109,1
DA:112,2
DA:114,2
DA:116,2
DA:117,2
DA:118,2
DA:119,2
DA:121,2
LF:56
LH:56
end_of_record
TN:
SF:/home/usr/Sources/SDK/IO.SDK/Math/Quaternion.h
FN:67,_ZNK2IO3SDK4Math10Quaternion5GetQ0Ev
FN:68,_ZNK2IO3SDK4Math10Quaternion5GetQ1Ev
FN:69,_ZNK2IO3SDK4Math10Quaternion5GetQ2Ev
FN:70,_ZNK2IO3SDK4Math10Quaternion5GetQ3Ev
FNDA:7285,_ZNK2IO3SDK4Math10Quaternion5GetQ1Ev
FNDA:7285,_ZNK2IO3SDK4Math10Quaternion5GetQ3Ev
FNDA:7285,_ZNK2IO3SDK4Math10Quaternion5GetQ2Ev
FNDA:7285,_ZNK2IO3SDK4Math10Quaternion5GetQ0Ev
FNF:4
FNH:4
DA:67,7285
DA:68,7285
DA:69,7285
DA:70,7285
LF:4
LH:4
end_of_record
TN:
SF:/home/usr/Sources/SDK/IO.SDK/Math/Vector3D.cpp
FN:21,_ZNK2IO3SDK4Math8Vector3D9MagnitudeEv
FN:26,_ZNK2IO3SDK4Math8Vector3DplERKS2_
FN:31,_ZNK2IO3SDK4Math8Vector3DmiERKS2_
FN:36,_ZNK2IO3SDK4Math8Vector3DmlEd
FN:41,_ZNK2IO3SDK4Math8Vector3DdvEd
FN:46,_ZNK2IO3SDK4Math8Vector3D12CrossProductERKS2_
FN:51,_ZNK2IO3SDK4Math8Vector3D10DotProductERKS2_
FN:56,_ZN2IO3SDK4Math8Vector3DaSERKS2_
FN:70,_ZNK2IO3SDK4Math8Vector3D9NormalizeEv
FN:79,_ZNK2IO3SDK4Math8Vector3D8GetAngleERKS2_
FN:84,_ZNK2IO3SDK4Math8Vector3DeqERKS2_
FN:89,_ZNK2IO3SDK4Math8Vector3D6RotateERKNS1_10QuaternionE
FN:103,_ZNK2IO3SDK4Math8Vector3D2ToERKS2_
FN:126,_ZNK2IO3SDK4Math8Vector3D7ReverseEv
FNDA:1820698,_ZNK2IO3SDK4Math8Vector3D12CrossProductERKS2_
FNDA:290347,_ZNK2IO3SDK4Math8Vector3DmiERKS2_
FNDA:24,_ZNK2IO3SDK4Math8Vector3DeqERKS2_
FNDA:3399914,_ZNK2IO3SDK4Math8Vector3DmlEd
FNDA:1534058,_ZNK2IO3SDK4Math8Vector3D9NormalizeEv
FNDA:61,_ZNK2IO3SDK4Math8Vector3D7ReverseEv
FNDA:81,_ZNK2IO3SDK4Math8Vector3D2ToERKS2_
FNDA:2487831,_ZNK2IO3SDK4Math8Vector3DplERKS2_
FNDA:30,_ZNK2IO3SDK4Math8Vector3D6RotateERKNS1_10QuaternionE
FNDA:13981,_ZNK2IO3SDK4Math8Vector3D8GetAngleERKS2_
FNDA:2735956,_ZNK2IO3SDK4Math8Vector3DdvEd
FNDA:362061,_ZNK2IO3SDK4Math8Vector3D10DotProductERKS2_
FNDA:4976202,_ZN2IO3SDK4Math8Vector3DaSERKS2_
FNDA:6653814,_ZNK2IO3SDK4Math8Vector3D9MagnitudeEv
FNF:14
FNH:14
DA:21,6653814
DA:23,6653814
DA:26,2487831
DA:28,2487831
DA:31,290347
DA:33,290347
DA:36,3399914
DA:38,3399914
DA:41,2735956
DA:43,2735956
DA:46,1820698
DA:48,1820698
DA:51,362061
DA:53,362061
DA:56,4976202
DA:58,4976202
DA:60,0
DA:63,4976202
DA:64,4976202
DA:65,4976202
DA:67,4976202
DA:70,1534058
DA:72,1534058
DA:74,1
DA:76,1534057
DA:79,13981
DA:81,13981
DA:84,24
DA:86,24
DA:89,30
DA:92,30
DA:95,30
DA:98,30
DA:100,60
DA:103,81
DA:105,81
DA:107,81
DA:109,2
DA:110,2
DA:111,2
DA:113,2
DA:114,2
DA:115,2
DA:118,79
DA:119,79
DA:120,79
DA:121,79
DA:123,79
DA:126,61
DA:128,61
LF:50
LH:49
end_of_record
TN:
SF:/home/usr/Sources/SDK/IO.SDK/Math/Vector3D.h
FN:27,_ZN2IO3SDK4Math8Vector3DC2Ev
FN:34,_ZN2IO3SDK4Math8Vector3DC2Eddd
FN:36,_ZN2IO3SDK4Math8Vector3DC2ERKS2_
FN:46,_ZNK2IO3SDK4Math8Vector3D4GetXEv
FN:52,_ZNK2IO3SDK4Math8Vector3D4GetYEv
FN:58,_ZNK2IO3SDK4Math8Vector3D4GetZEv
FNDA:16469158,_ZN2IO3SDK4Math8Vector3DC2ERKS2_
FNDA:1865941,_ZN2IO3SDK4Math8Vector3DC2Ev
FNDA:4020226,_ZNK2IO3SDK4Math8Vector3D4GetZEv
FNDA:10994248,_ZN2IO3SDK4Math8Vector3DC2Eddd
FNDA:4020048,_ZNK2IO3SDK4Math8Vector3D4GetYEv
FNDA:4020581,_ZNK2IO3SDK4Math8Vector3D4GetXEv
FNF:6
FNH:6
DA:27,1865941
DA:34,10994248
DA:36,16469158
DA:46,4020581
DA:52,4020048
DA:58,4020226
LF:6
LH:6
end_of_record
TN:
SF:/home/usr/Sources/SDK/IO.SDK/OccultationType.cpp
FN:18,_ZN2IO3SDK15OccultationTypeC2ERKNSt7__cxx1112basic_stringIcSt11char_traitsIcESaIcEEE
FN:23,_ZNK2IO3SDK15OccultationType11ToCharArrayEv
FN:28,_ZN2IO3SDK15OccultationType4FullEv
FN:33,_ZN2IO3SDK15OccultationType7AnnularEv
FN:38,_ZN2IO3SDK15OccultationType7PartialEv
FN:43,_ZN2IO3SDK15OccultationType3AnyEv
FNDA:1,_ZN2IO3SDK15OccultationType4FullEv
FNDA:1,_ZN2IO3SDK15OccultationType7PartialEv
FNDA:2,_ZN2IO3SDK15OccultationType3AnyEv
FNDA:5,_ZNK2IO3SDK15OccultationType11ToCharArrayEv
FNDA:20,_ZN2IO3SDK15OccultationTypeC2ERKNSt7__cxx1112basic_stringIcSt11char_traitsIcESaIcEEE
FNDA:1,_ZN2IO3SDK15OccultationType7AnnularEv
FNF:6
FNH:6
DA:18,20
DA:21,20
DA:23,5
DA:25,5
DA:28,1
DA:30,1
DA:33,1
DA:35,1
DA:38,1
DA:40,1
DA:43,2
DA:45,2
LF:12
LH:12
end_of_record
TN:
SF:/home/usr/Sources/SDK/IO.SDK/OrbitalParameters/ConicOrbitalElements.cpp
FN:18,_ZN2IO3SDK17OrbitalParameters20ConicOrbitalElementsC2ERKSt10shared_ptrINS0_4Body13CelestialBodyEEddddddRKNS0_4Time3TDBERKNS0_6Frames6FramesE
FN:25,_ZN2IO3SDK17OrbitalParameters20ConicOrbitalElementsC2ERKSt10shared_ptrINS0_4Body13CelestialBodyEEPKdRKNS0_6Frames6FramesE
FN:29,_ZN2IO3SDK17OrbitalParameters20ConicOrbitalElementsC2ERKNS1_11StateVectorE
FN:45,_ZNK2IO3SDK17OrbitalParameters20ConicOrbitalElements14GetStateVectorERKNS0_4Time3TDBE
FN:55,_ZNK2IO3SDK17OrbitalParameters20ConicOrbitalElements26GetSpecificAngularMomentumEv
FN:60,_ZNK2IO3SDK17OrbitalParameters20ConicOrbitalElements24GetSpecificOrbitalEnergyEv
FN:65,_ZNK2IO3SDK17OrbitalParameters20ConicOrbitalElements20GetPerifocalDistanceEv
FN:70,_ZNK2IO3SDK17OrbitalParameters20ConicOrbitalElements15GetEccentricityEv
FN:75,_ZNK2IO3SDK17OrbitalParameters20ConicOrbitalElements14GetInclinationEv
FN:80,_ZNK2IO3SDK17OrbitalParameters20ConicOrbitalElements30GetRightAscendingNodeLongitudeEv
FN:85,_ZNK2IO3SDK17OrbitalParameters20ConicOrbitalElements20GetPeriapsisArgumentEv
FN:90,_ZNK2IO3SDK17OrbitalParameters20ConicOrbitalElements14GetMeanAnomalyEv
FN:95,_ZNK2IO3SDK17OrbitalParameters20ConicOrbitalElements14GetTrueAnomalyEv
FN:100,_ZNK2IO3SDK17OrbitalParameters20ConicOrbitalElements16GetSemiMajorAxisEv
FN:105,_ZNK2IO3SDK17OrbitalParameters20ConicOrbitalElements9GetPeriodEv
FNDA:61,_ZNK2IO3SDK17OrbitalParameters20ConicOrbitalElements24GetSpecificOrbitalEnergyEv
FNDA:2,_ZNK2IO3SDK17OrbitalParameters20ConicOrbitalElements20GetPeriapsisArgumentEv
FNDA:145,_ZNK2IO3SDK17OrbitalParameters20ConicOrbitalElements14GetMeanAnomalyEv
FNDA:60,_ZN2IO3SDK17OrbitalParameters20ConicOrbitalElementsC2ERKSt10shared_ptrINS0_4Body13CelestialBodyEEddddddRKNS0_4Time3TDBERKNS0_6Frames6FramesE
FNDA:153,_ZNK2IO3SDK17OrbitalParameters20ConicOrbitalElements9GetPeriodEv
FNDA:12,_ZNK2IO3SDK17OrbitalParameters20ConicOrbitalElements14GetInclinationEv
FNDA:113722,_ZNK2IO3SDK17OrbitalParameters20ConicOrbitalElements14GetStateVectorERKNS0_4Time3TDBE
FNDA:2,_ZNK2IO3SDK17OrbitalParameters20ConicOrbitalElements20GetPerifocalDistanceEv
FNDA:7,_ZNK2IO3SDK17OrbitalParameters20ConicOrbitalElements30GetRightAscendingNodeLongitudeEv
FNDA:99641,_ZNK2IO3SDK17OrbitalParameters20ConicOrbitalElements26GetSpecificAngularMomentumEv
FNDA:42601,_ZNK2IO3SDK17OrbitalParameters20ConicOrbitalElements15GetEccentricityEv
FNDA:2,_ZNK2IO3SDK17OrbitalParameters20ConicOrbitalElements14GetTrueAnomalyEv
FNDA:13922,_ZNK2IO3SDK17OrbitalParameters20ConicOrbitalElements16GetSemiMajorAxisEv
FNDA:4,_ZN2IO3SDK17OrbitalParameters20ConicOrbitalElementsC2ERKSt10shared_ptrINS0_4Body13CelestialBodyEEPKdRKNS0_6Frames6FramesE
FNDA:32,_ZN2IO3SDK17OrbitalParameters20ConicOrbitalElementsC2ERKNS1_11StateVectorE
FNF:15
FNH:15
DA:18,60
DA:20,60
DA:21,60
DA:22,60
DA:23,60
DA:25,4
DA:27,4
DA:29,32
DA:32,32
DA:33,32
DA:34,32
DA:35,32
DA:36,32
DA:37,32
DA:38,32
DA:39,32
DA:40,32
DA:41,32
DA:42,32
DA:43,32
DA:45,113722
DA:47,113722
DA:48,113722
DA:49,113722
DA:51,113722
DA:52,227444
DA:55,99641
DA:57,99641
DA:60,61
DA:62,61
DA:65,2
DA:67,2
DA:70,42601
DA:72,42601
DA:75,12
DA:77,12
DA:80,7
DA:82,7
DA:85,2
DA:87,2
DA:90,145
DA:92,145
DA:95,2
DA:97,2
DA:100,13922
DA:102,13922
DA:105,153
DA:107,153
LF:48
LH:48
end_of_record
TN:
SF:/home/usr/Sources/SDK/IO.SDK/OrbitalParameters/ConicOrbitalElements.h
FN:68,_ZN2IO3SDK17OrbitalParameters20ConicOrbitalElementsC2ERKS2_
FN:70,_ZN2IO3SDK17OrbitalParameters20ConicOrbitalElementsD2Ev
FN:70,_ZN2IO3SDK17OrbitalParameters20ConicOrbitalElementsD0Ev
FNDA:98,_ZN2IO3SDK17OrbitalParameters20ConicOrbitalElementsD2Ev
FNDA:60,_ZN2IO3SDK17OrbitalParameters20ConicOrbitalElementsD0Ev
FNDA:2,_ZN2IO3SDK17OrbitalParameters20ConicOrbitalElementsC2ERKS2_
FNF:3
FNH:3
DA:68,2
DA:70,158
LF:2
LH:2
end_of_record
TN:
SF:/home/usr/Sources/SDK/IO.SDK/OrbitalParameters/EquinoctialElements.cpp
FN:15,_ZN2IO3SDK17OrbitalParameters19EquinoctialElementsC2ERKSt10shared_ptrINS0_4Body13CelestialBodyEERKNS0_4Time3TDBEddddddddddRKNS0_6Frames6FramesE
FN:32,_ZN2IO3SDK17OrbitalParameters19EquinoctialElementsC2ERKSt10shared_ptrINS0_4Body13CelestialBodyEEddddddddddRKNS0_4Time3TDBERKNS0_6Frames6FramesE
FN:54,_ZNK2IO3SDK17OrbitalParameters19EquinoctialElements9GetPeriodEv
FN:59,_ZNK2IO3SDK17OrbitalParameters19EquinoctialElements26GetSpecificAngularMomentumEv
FN:64,_ZNK2IO3SDK17OrbitalParameters19EquinoctialElements14GetStateVectorERKNS0_4Time3TDBE
FN:71,_ZNK2IO3SDK17OrbitalParameters19EquinoctialElements15GetEccentricityEv
FN:76,_ZNK2IO3SDK17OrbitalParameters19EquinoctialElements14GetInclinationEv
FN:81,_ZNK2IO3SDK17OrbitalParameters19EquinoctialElements20GetPeriapsisArgumentEv
FN:86,_ZNK2IO3SDK17OrbitalParameters19EquinoctialElements30GetRightAscendingNodeLongitudeEv
FN:91,_ZNK2IO3SDK17OrbitalParameters19EquinoctialElements14GetMeanAnomalyEv
FN:96,_ZNK2IO3SDK17OrbitalParameters19EquinoctialElements24GetSpecificOrbitalEnergyEv
FNDA:18,_ZN2IO3SDK17OrbitalParameters19EquinoctialElementsC2ERKSt10shared_ptrINS0_4Body13CelestialBodyEERKNS0_4Time3TDBEddddddddddRKNS0_6Frames6FramesE
FNDA:1,_ZNK2IO3SDK17OrbitalParameters19EquinoctialElements24GetSpecificOrbitalEnergyEv
FNDA:4,_ZNK2IO3SDK17OrbitalParameters19EquinoctialElements26GetSpecificAngularMomentumEv
FNDA:4,_ZNK2IO3SDK17OrbitalParameters19EquinoctialElements20GetPeriapsisArgumentEv
FNDA:1486,_ZNK2IO3SDK17OrbitalParameters19EquinoctialElements15GetEccentricityEv
FNDA:15,_ZNK2IO3SDK17OrbitalParameters19EquinoctialElements14GetStateVectorERKNS0_4Time3TDBE
FNDA:2,_ZNK2IO3SDK17OrbitalParameters19EquinoctialElements14GetInclinationEv
FNDA:729,_ZNK2IO3SDK17OrbitalParameters19EquinoctialElements9GetPeriodEv
FNDA:3,_ZNK2IO3SDK17OrbitalParameters19EquinoctialElements30GetRightAscendingNodeLongitudeEv
FNDA:371,_ZNK2IO3SDK17OrbitalParameters19EquinoctialElements14GetMeanAnomalyEv
FNDA:7,_ZN2IO3SDK17OrbitalParameters19EquinoctialElementsC2ERKSt10shared_ptrINS0_4Body13CelestialBodyEEddddddddddRKNS0_4Time3TDBERKNS0_6Frames6FramesE
FNF:11
FNH:11
DA:15,18
DA:17,18
DA:19,18
DA:20,18
DA:21,18
DA:22,18
DA:23,18
DA:24,18
DA:25,18
DA:26,18
DA:27,18
DA:29,18
DA:30,18
DA:32,7
DA:35,7
DA:36,7
DA:37,7
DA:38,7
DA:39,7
DA:40,7
DA:42,7
DA:43,7
DA:44,7
DA:45,7
DA:46,7
DA:47,7
DA:48,7
DA:49,7
DA:50,7
DA:51,7
DA:52,7
DA:54,729
DA:56,729
DA:59,4
DA:61,4
DA:64,15
DA:66,15
DA:67,15
DA:68,30
DA:71,1486
DA:73,1486
DA:76,2
DA:78,2
DA:81,4
DA:83,4
DA:86,3
DA:88,3
DA:91,371
DA:93,371
DA:96,1
DA:98,1
LF:51
LH:51
end_of_record
TN:
SF:/home/usr/Sources/SDK/IO.SDK/OrbitalParameters/EquinoctialElements.h
FN:50,_ZNK2IO3SDK17OrbitalParameters19EquinoctialElements4GetHEv
FN:56,_ZNK2IO3SDK17OrbitalParameters19EquinoctialElements4GetKEv
FN:62,_ZNK2IO3SDK17OrbitalParameters19EquinoctialElements4GetPEv
FN:68,_ZNK2IO3SDK17OrbitalParameters19EquinoctialElements4GetQEv
FN:74,_ZNK2IO3SDK17OrbitalParameters19EquinoctialElements4GetLEv
FN:80,_ZNK2IO3SDK17OrbitalParameters19EquinoctialElements25GetPeriapsisLongitudeRateEv
FN:86,_ZNK2IO3SDK17OrbitalParameters19EquinoctialElements29GetAscendingNodeLongitudeRateEv
FN:92,_ZNK2IO3SDK17OrbitalParameters19EquinoctialElements18GetMeanAnomalyRateEv
FN:98,_ZNK2IO3SDK17OrbitalParameters19EquinoctialElements23GetRightAscensionOfPoleEv
FN:104,_ZNK2IO3SDK17OrbitalParameters19EquinoctialElements20GetDeclinationOfPoleEv
FN:132,_ZNK2IO3SDK17OrbitalParameters19EquinoctialElements16GetSemiMajorAxisEv
FNDA:2,_ZNK2IO3SDK17OrbitalParameters19EquinoctialElements4GetKEv
FNDA:2,_ZNK2IO3SDK17OrbitalParameters19EquinoctialElements25GetPeriapsisLongitudeRateEv
FNDA:2,_ZNK2IO3SDK17OrbitalParameters19EquinoctialElements4GetPEv
FNDA:2,_ZNK2IO3SDK17OrbitalParameters19EquinoctialElements4GetLEv
FNDA:2,_ZNK2IO3SDK17OrbitalParameters19EquinoctialElements4GetQEv
FNDA:4,_ZNK2IO3SDK17OrbitalParameters19EquinoctialElements16GetSemiMajorAxisEv
FNDA:2,_ZNK2IO3SDK17OrbitalParameters19EquinoctialElements4GetHEv
FNDA:2,_ZNK2IO3SDK17OrbitalParameters19EquinoctialElements18GetMeanAnomalyRateEv
FNDA:2,_ZNK2IO3SDK17OrbitalParameters19EquinoctialElements20GetDeclinationOfPoleEv
FNDA:2,_ZNK2IO3SDK17OrbitalParameters19EquinoctialElements23GetRightAscensionOfPoleEv
FNDA:2,_ZNK2IO3SDK17OrbitalParameters19EquinoctialElements29GetAscendingNodeLongitudeRateEv
FNF:11
FNH:11
DA:50,2
DA:56,2
DA:62,2
DA:68,2
DA:74,2
DA:80,2
DA:86,2
DA:92,2
DA:98,2
DA:104,2
DA:132,4
LF:11
LH:11
end_of_record
TN:
SF:/home/usr/Sources/SDK/IO.SDK/OrbitalParameters/OrbitalParameters.cpp
FN:21,_ZN2IO3SDK17OrbitalParameters17OrbitalParametersC2ERKSt10shared_ptrINS0_4Body13CelestialBodyEERKNS0_4Time3TDBERKNS0_6Frames6FramesE
FN:25,_ZNK2IO3SDK17OrbitalParameters17OrbitalParameters17GetCenterOfMotionEv
FN:30,_ZNK2IO3SDK17OrbitalParameters17OrbitalParameters12IsEllipticalEv
FN:35,_ZNK2IO3SDK17OrbitalParameters17OrbitalParameters11IsParabolicEv
FN:40,_ZNK2IO3SDK17OrbitalParameters17OrbitalParameters12IsHyperbolicEv
FN:45,_ZNK2IO3SDK17OrbitalParameters17OrbitalParameters10IsCircularEv
FN:50,_ZNK2IO3SDK17OrbitalParameters17OrbitalParameters13GetMeanMotionEv
FN:60,_ZNK2IO3SDK17OrbitalParameters17OrbitalParameters20GetTimeToMeanAnomalyEd
FN:70,_ZNK2IO3SDK17OrbitalParameters17OrbitalParameters20GetTimeToTrueAnomalyEd
FN:91,_ZNK2IO3SDK17OrbitalParameters17OrbitalParameters19GetEccentricAnomalyENS0_4Time3TDBE
FN:105,_ZNK2IO3SDK17OrbitalParameters17OrbitalParameters14GetMeanAnomalyENS0_4Time3TDBE
FN:115,_ZNK2IO3SDK17OrbitalParameters17OrbitalParameters14GetTrueAnomalyENS0_4Time3TDBE
FN:126,_ZNK2IO3SDK17OrbitalParameters17OrbitalParameters14GetTrueAnomalyEv
FN:131,_ZNK2IO3SDK17OrbitalParameters17OrbitalParameters14GetStateVectorEv
FN:136,_ZNK2IO3SDK17OrbitalParameters17OrbitalParameters8GetEpochEv
FN:141,_ZNK2IO3SDK17OrbitalParameters17OrbitalParameters8GetFrameEv
FN:146,_ZNK2IO3SDK17OrbitalParameters17OrbitalParameters21GetEccentricityVectorEv
FN:152,_ZNK2IO3SDK17OrbitalParameters17OrbitalParameters16GetPerigeeVectorEv
FN:157,_ZNK2IO3SDK17OrbitalParameters17OrbitalParameters15GetApogeeVectorEv
FN:162,_ZNK2IO3SDK17OrbitalParameters17OrbitalParameters14GetStateVectorEd
FN:167,_ZNK2IO3SDK17OrbitalParameters17OrbitalParameters22GetAscendingNodeVectorEv
FN:176,_ZNK2IO3SDK17OrbitalParameters17OrbitalParameters8GetRADecEv
FN:191,_ZNK2IO3SDK17OrbitalParameters17OrbitalParameters20GetVelocityAtPerigeeEv
FN:196,_ZNK2IO3SDK17OrbitalParameters17OrbitalParameters19GetVelocityAtApogeeEv
FN:201,_ZNK2IO3SDK17OrbitalParameters17OrbitalParameters16GetTrueLongitudeEv
FN:212,_ZNK2IO3SDK17OrbitalParameters17OrbitalParameters16GetMeanLongitudeEv
FN:223,_ZNK2IO3SDK17OrbitalParameters17OrbitalParameters16GetTrueLongitudeERKNS0_4Time3TDBE
FN:235,_ZNK2IO3SDK17OrbitalParameters17OrbitalParameters16GetMeanLongitudeERKNS0_4Time3TDBE
FNDA:4,_ZNK2IO3SDK17OrbitalParameters17OrbitalParameters12IsEllipticalEv
FNDA:2,_ZNK2IO3SDK17OrbitalParameters17OrbitalParameters14GetTrueAnomalyEv
FNDA:43,_ZNK2IO3SDK17OrbitalParameters17OrbitalParameters15GetApogeeVectorEv
FNDA:37,_ZNK2IO3SDK17OrbitalParameters17OrbitalParameters20GetVelocityAtPerigeeEv
FNDA:439,_ZNK2IO3SDK17OrbitalParameters17OrbitalParameters14GetMeanAnomalyENS0_4Time3TDBE
FNDA:14463,_ZNK2IO3SDK17OrbitalParameters17OrbitalParameters12IsHyperbolicEv
FNDA:289956,_ZNK2IO3SDK17OrbitalParameters17OrbitalParameters16GetPerigeeVectorEv
FNDA:4307413,_ZN2IO3SDK17OrbitalParameters17OrbitalParametersC2ERKSt10shared_ptrINS0_4Body13CelestialBodyEERKNS0_4Time3TDBERKNS0_6Frames6FramesE
FNDA:14459,_ZNK2IO3SDK17OrbitalParameters17OrbitalParameters13GetMeanMotionEv
FNDA:26,_ZNK2IO3SDK17OrbitalParameters17OrbitalParameters22GetAscendingNodeVectorEv
FNDA:262103,_ZNK2IO3SDK17OrbitalParameters17OrbitalParameters10IsCircularEv
FNDA:0,_ZNK2IO3SDK17OrbitalParameters17OrbitalParameters19GetVelocityAtApogeeEv
FNDA:5119445,_ZNK2IO3SDK17OrbitalParameters17OrbitalParameters17GetCenterOfMotionEv
FNDA:14011,_ZNK2IO3SDK17OrbitalParameters17OrbitalParameters20GetTimeToTrueAnomalyEd
FNDA:2,_ZNK2IO3SDK17OrbitalParameters17OrbitalParameters16GetTrueLongitudeEv
FNDA:0,_ZNK2IO3SDK17OrbitalParameters17OrbitalParameters16GetMeanLongitudeERKNS0_4Time3TDBE
FNDA:2123980,_ZNK2IO3SDK17OrbitalParameters17OrbitalParameters8GetEpochEv
FNDA:290000,_ZNK2IO3SDK17OrbitalParameters17OrbitalParameters21GetEccentricityVectorEv
FNDA:13991,_ZNK2IO3SDK17OrbitalParameters17OrbitalParameters14GetStateVectorEd
FNDA:14075,_ZNK2IO3SDK17OrbitalParameters17OrbitalParameters14GetStateVectorEv
FNDA:433,_ZNK2IO3SDK17OrbitalParameters17OrbitalParameters19GetEccentricAnomalyENS0_4Time3TDBE
FNDA:1,_ZNK2IO3SDK17OrbitalParameters17OrbitalParameters8GetRADecEv
FNDA:4,_ZNK2IO3SDK17OrbitalParameters17OrbitalParameters11IsParabolicEv
FNDA:429,_ZNK2IO3SDK17OrbitalParameters17OrbitalParameters14GetTrueAnomalyENS0_4Time3TDBE
FNDA:2,_ZNK2IO3SDK17OrbitalParameters17OrbitalParameters16GetTrueLongitudeERKNS0_4Time3TDBE
FNDA:0,_ZNK2IO3SDK17OrbitalParameters17OrbitalParameters16GetMeanLongitudeEv
FNDA:1866172,_ZNK2IO3SDK17OrbitalParameters17OrbitalParameters8GetFrameEv
FNDA:14015,_ZNK2IO3SDK17OrbitalParameters17OrbitalParameters20GetTimeToMeanAnomalyEd
FNF:28
FNH:25
DA:21,4307413
DA:23,4307413
DA:25,5119445
DA:27,5119445
DA:30,4
DA:32,4
DA:35,4
DA:37,4
DA:40,14463
DA:42,14463
DA:45,262103
DA:47,262103
DA:50,14459
DA:52,14459
DA:54,1
DA:57,14458
DA:60,14015
DA:62,14015
DA:63,14051
DA:65,36
DA:67,14015
DA:70,14011
DA:72,14011
DA:74,1
DA:77,14011
DA:78,14011
DA:79,14011
DA:81,14011
DA:83,6981
DA:86,14011
DA:88,14011
DA:91,433
DA:93,433
DA:94,433
DA:95,433
DA:97,1185
DA:99,752
DA:100,752
DA:102,433
DA:105,439
DA:107,439
DA:108,443
DA:110,4
DA:112,439
DA:115,429
DA:117,429
DA:118,429
DA:119,616
DA:121,187
DA:123,429
DA:126,2
DA:128,2
DA:131,14075
DA:133,14075
DA:136,2123980
DA:138,2123980
DA:141,1866172
DA:143,1866172
DA:146,290000
DA:148,290000
DA:149,870000
DA:152,289956
DA:154,579912
DA:157,43
DA:159,86
DA:162,13991
DA:164,27982
DA:167,26
DA:170,26
DA:173,52
DA:176,1
DA:178,2
DA:179,1
DA:181,0
DA:184,1
DA:186,1
DA:188,2
DA:191,37
DA:193,37
DA:196,0
DA:198,0
DA:201,2
DA:203,2
DA:204,3
DA:206,1
DA:209,2
DA:212,0
DA:214,0
DA:215,0
DA:217,0
DA:220,0
DA:223,2
DA:225,2
DA:227,2
DA:229,0
DA:232,2
DA:235,0
DA:237,0
DA:239,0
DA:241,0
DA:244,0
LF:101
LH:87
end_of_record
TN:
SF:/home/usr/Sources/SDK/IO.SDK/OrbitalParameters/OrbitalParameters.h
FN:55,_ZN2IO3SDK17OrbitalParameters17OrbitalParametersD2Ev
FN:55,_ZN2IO3SDK17OrbitalParameters17OrbitalParametersD0Ev
FNDA:0,_ZN2IO3SDK17OrbitalParameters17OrbitalParametersD0Ev
FNDA:4307415,_ZN2IO3SDK17OrbitalParameters17OrbitalParametersD2Ev
FNF:2
FNH:1
DA:55,4307415
LF:1
LH:1
end_of_record
TN:
SF:/home/usr/Sources/SDK/IO.SDK/OrbitalParameters/StateOrientation.cpp
FN:13,_ZN2IO3SDK17OrbitalParameters16StateOrientationC2ERKNS0_4Time3TDBERKNS0_6Frames6FramesE
FN:17,_ZN2IO3SDK17OrbitalParameters16StateOrientationC2ERKNS0_4Math8Vector3DEdS6_RKNS0_4Time3TDBERKNS0_6Frames6FramesE
FN:21,_ZN2IO3SDK17OrbitalParameters16StateOrientationC2EdddddddRKNS0_4Time3TDBERKNS0_6Frames6FramesE
FN:25,_ZN2IO3SDK17OrbitalParameters16StateOrientationC2ERKNS0_4Math10QuaternionERKNS3_8Vector3DERKNS0_4Time3TDBERKNS0_6Frames6FramesE
FN:29,_ZN2IO3SDK17OrbitalParameters16StateOrientationC2ERKS2_
FN:33,_ZN2IO3SDK17OrbitalParameters16StateOrientationaSERKS2_
FN:45,_ZNK2IO3SDK17OrbitalParameters16StateOrientation8GetEpochEv
FN:50,_ZNK2IO3SDK17OrbitalParameters16StateOrientation13GetQuaternionEv
FN:55,_ZNK2IO3SDK17OrbitalParameters16StateOrientation18GetAngularVelocityEv
FN:60,_ZNK2IO3SDK17OrbitalParameters16StateOrientation8GetFrameEv
FNDA:2645,_ZN2IO3SDK17OrbitalParameters16StateOrientationC2ERKS2_
FNDA:2268,_ZNK2IO3SDK17OrbitalParameters16StateOrientation18GetAngularVelocityEv
FNDA:801,_ZN2IO3SDK17OrbitalParameters16StateOrientationC2ERKNS0_4Math10QuaternionERKNS3_8Vector3DERKNS0_4Time3TDBERKNS0_6Frames6FramesE
FNDA:1,_ZN2IO3SDK17OrbitalParameters16StateOrientationC2EdddddddRKNS0_4Time3TDBERKNS0_6Frames6FramesE
FNDA:909,_ZNK2IO3SDK17OrbitalParameters16StateOrientation8GetEpochEv
FNDA:3043,_ZNK2IO3SDK17OrbitalParameters16StateOrientation13GetQuaternionEv
FNDA:1,_ZN2IO3SDK17OrbitalParameters16StateOrientationC2ERKNS0_4Math8Vector3DEdS6_RKNS0_4Time3TDBERKNS0_6Frames6FramesE
FNDA:0,_ZN2IO3SDK17OrbitalParameters16StateOrientationaSERKS2_
FNDA:782,_ZNK2IO3SDK17OrbitalParameters16StateOrientation8GetFrameEv
FNDA:53,_ZN2IO3SDK17OrbitalParameters16StateOrientationC2ERKNS0_4Time3TDBERKNS0_6Frames6FramesE
FNF:10
FNH:9
DA:13,53
DA:15,53
DA:17,1
DA:19,1
DA:21,1
DA:23,1
DA:25,801
DA:27,801
DA:29,2645
DA:31,2645
DA:33,0
DA:35,0
DA:37,0
DA:38,0
DA:39,0
DA:40,0
DA:42,0
DA:45,909
DA:47,909
DA:50,3043
DA:52,3043
DA:55,2268
DA:57,2268
DA:60,782
DA:62,782
LF:25
LH:18
end_of_record
TN:
SF:/home/usr/Sources/SDK/IO.SDK/OrbitalParameters/StateVector.cpp
FN:16,_ZN2IO3SDK17OrbitalParameters11StateVectorC2ERKSt10shared_ptrINS0_4Body13CelestialBodyEERKNS0_4Math8Vector3DESC_RKNS0_4Time3TDBERKNS0_6Frames6FramesE
FN:29,_ZN2IO3SDK17OrbitalParameters11StateVectorC2ERKSt10shared_ptrINS0_4Body13CelestialBodyEEPdRKNS0_4Time3TDBERKNS0_6Frames6FramesE
FN:33,_ZN2IO3SDK17OrbitalParameters11StateVectorC2ERKS2_
FN:38,_ZN2IO3SDK17OrbitalParameters11StateVectoraSERKS2_
FN:52,_ZNK2IO3SDK17OrbitalParameters11StateVector9GetPeriodEv
FN:57,_ZNK2IO3SDK17OrbitalParameters11StateVector15GetEccentricityEv
FN:62,_ZNK2IO3SDK17OrbitalParameters11StateVector16GetSemiMajorAxisEv
FN:67,_ZNK2IO3SDK17OrbitalParameters11StateVector14GetInclinationEv
FN:72,_ZNK2IO3SDK17OrbitalParameters11StateVector30GetRightAscendingNodeLongitudeEv
FN:77,_ZNK2IO3SDK17OrbitalParameters11StateVector20GetPeriapsisArgumentEv
FN:82,_ZNK2IO3SDK17OrbitalParameters11StateVector14GetMeanAnomalyEv
FN:87,_ZNK2IO3SDK17OrbitalParameters11StateVector14GetTrueAnomalyEv
FN:92,_ZNK2IO3SDK17OrbitalParameters11StateVector14GetStateVectorERKNS0_4Time3TDBE
FN:102,_ZNK2IO3SDK17OrbitalParameters11StateVector24GetSpecificOrbitalEnergyEv
FN:107,_ZNK2IO3SDK17OrbitalParameters11StateVectoreqERKS2_
FN:112,_ZNK2IO3SDK17OrbitalParameters11StateVector28CheckAndUpdateCenterOfMotionEv
FN:183,_ZNK2IO3SDK17OrbitalParameters11StateVector7ToFrameERKNS0_6Frames6FramesE
FN:214,_ZNK2IO3SDK17OrbitalParameters11StateVector16ToBodyFixedFrameEv
FN:219,_ZNK2IO3SDK17OrbitalParameters11StateVector14GetStateVectorEv
FNDA:14,_ZNK2IO3SDK17OrbitalParameters11StateVector30GetRightAscendingNodeLongitudeEv
FNDA:624030,_ZNK2IO3SDK17OrbitalParameters11StateVector14GetStateVectorEv
FNDA:17,_ZNK2IO3SDK17OrbitalParameters11StateVector14GetInclinationEv
FNDA:3,_ZNK2IO3SDK17OrbitalParameters11StateVectoreqERKS2_
FNDA:13918,_ZNK2IO3SDK17OrbitalParameters11StateVector14GetMeanAnomalyEv
FNDA:13920,_ZNK2IO3SDK17OrbitalParameters11StateVector9GetPeriodEv
FNDA:128899,_ZN2IO3SDK17OrbitalParameters11StateVectorC2ERKSt10shared_ptrINS0_4Body13CelestialBodyEEPdRKNS0_4Time3TDBERKNS0_6Frames6FramesE
FNDA:621983,_ZN2IO3SDK17OrbitalParameters11StateVectoraSERKS2_
FNDA:13999,_ZNK2IO3SDK17OrbitalParameters11StateVector14GetStateVectorERKNS0_4Time3TDBE
FNDA:1373033,_ZN2IO3SDK17OrbitalParameters11StateVectorC2ERKSt10shared_ptrINS0_4Body13CelestialBodyEERKNS0_4Math8Vector3DESC_RKNS0_4Time3TDBERKNS0_6Frames6FramesE
FNDA:621881,_ZNK2IO3SDK17OrbitalParameters11StateVector28CheckAndUpdateCenterOfMotionEv
FNDA:319,_ZNK2IO3SDK17OrbitalParameters11StateVector7ToFrameERKNS0_6Frames6FramesE
FNDA:3,_ZNK2IO3SDK17OrbitalParameters11StateVector14GetTrueAnomalyEv
FNDA:0,_ZNK2IO3SDK17OrbitalParameters11StateVector16ToBodyFixedFrameEv
FNDA:607831,_ZNK2IO3SDK17OrbitalParameters11StateVector15GetEccentricityEv
FNDA:2934227,_ZN2IO3SDK17OrbitalParameters11StateVectorC2ERKS2_
FNDA:17,_ZNK2IO3SDK17OrbitalParameters11StateVector20GetPeriapsisArgumentEv
FNDA:66,_ZNK2IO3SDK17OrbitalParameters11StateVector24GetSpecificOrbitalEnergyEv
FNDA:276222,_ZNK2IO3SDK17OrbitalParameters11StateVector16GetSemiMajorAxisEv
FNF:19
FNH:18
DA:16,1373033
DA:19,1373033
DA:21,1372872
DA:22,1372872
DA:23,1372872
DA:24,1372872
DA:26,1373033
DA:29,128899
DA:31,128899
DA:33,2934227
DA:35,2934227
DA:36,2934227
DA:38,621983
DA:40,621983
DA:41,0
DA:42,621983
DA:43,621983
DA:44,621983
DA:45,621983
DA:46,621983
DA:47,621983
DA:49,621983
DA:52,13920
DA:54,13920
DA:57,607831
DA:59,607831
DA:62,276222
DA:64,276222
DA:67,17
DA:69,17
DA:72,14
DA:74,14
DA:77,17
DA:79,17
DA:82,13918
DA:84,13918
DA:87,3
DA:89,3
DA:92,13999
DA:94,13999
DA:95,13999
DA:97,13999
DA:99,27998
DA:102,66
DA:104,66
DA:107,3
DA:109,3
DA:112,621881
DA:115,621881
DA:116,621881
DA:117,621881
DA:120,621881
DA:121,621881
DA:122,621881
DA:123,621881
DA:128,1243762
DA:129,622084
DA:132,406
DA:133,203
DA:134,203
DA:137,203
DA:139,203
DA:141,2
DA:142,2
DA:143,2
DA:144,2
DA:148,203
DA:152,1243963
DA:154,622082
DA:156,621879
DA:158,406
DA:160,203
DA:162,203
DA:165,203
DA:167,1
DA:168,1
DA:169,1
DA:170,1
DA:175,621881
DA:177,2
DA:180,621879
DA:183,319
DA:185,319
DA:187,152
DA:190,334
DA:192,167
DA:193,167
DA:194,167
DA:195,167
DA:196,167
DA:197,167
DA:200,1169
DA:202,7014
DA:204,6012
DA:209,167
DA:211,167
DA:214,0
DA:216,0
DA:219,624030
DA:221,624030
LF:100
LH:97
end_of_record
TN:
SF:/home/usr/Sources/SDK/IO.SDK/OrbitalParameters/StateVector.h
FN:75,_ZN2IO3SDK17OrbitalParameters11StateVectorD0Ev
FN:75,_ZN2IO3SDK17OrbitalParameters11StateVectorD2Ev
FN:85,_ZNK2IO3SDK17OrbitalParameters11StateVector11GetPositionEv
FN:95,_ZNK2IO3SDK17OrbitalParameters11StateVector11GetVelocityEv
FN:105,_ZNK2IO3SDK17OrbitalParameters11StateVector26GetSpecificAngularMomentumEv
FNDA:3168159,_ZNK2IO3SDK17OrbitalParameters11StateVector11GetPositionEv
FNDA:4307260,_ZN2IO3SDK17OrbitalParameters11StateVectorD2Ev
FNDA:195,_ZN2IO3SDK17OrbitalParameters11StateVectorD0Ev
FNDA:547337,_ZNK2IO3SDK17OrbitalParameters11StateVector26GetSpecificAngularMomentumEv
FNDA:2418441,_ZNK2IO3SDK17OrbitalParameters11StateVector11GetVelocityEv
FNF:5
FNH:5
DA:75,4307455
DA:85,3168159
DA:87,3168159
DA:95,2418441
DA:97,2418441
DA:105,547337
DA:107,547337
LF:7
LH:7
end_of_record
TN:
SF:/home/usr/Sources/SDK/IO.SDK/OrbitalParameters/TLE.cpp
FN:18,_ZN2IO3SDK17OrbitalParameters3TLEC2ERKSt10shared_ptrINS0_4Body13CelestialBodyEEPNSt7__cxx1112basic_stringIcSt11char_traitsIcESaIcEEE
FN:44,_ZN2IO3SDK17OrbitalParameters3TLE16GetSatelliteNameB5cxx11Ev
FN:49,_ZN2IO3SDK17OrbitalParameters3TLE22GetBalisticCoefficientEv
FN:54,_ZN2IO3SDK17OrbitalParameters3TLE31GetSecondDerivativeOfMeanMotionEv
FN:59,_ZN2IO3SDK17OrbitalParameters3TLE11GetDragTermEv
FN:64,_ZNK2IO3SDK17OrbitalParameters3TLE9GetPeriodEv
FN:69,_ZNK2IO3SDK17OrbitalParameters3TLE26GetSpecificAngularMomentumEv
FN:74,_ZNK2IO3SDK17OrbitalParameters3TLE14GetStateVectorERKNS0_4Time3TDBE
FN:96,_ZNK2IO3SDK17OrbitalParameters3TLE15GetEccentricityEv
FN:101,_ZNK2IO3SDK17OrbitalParameters3TLE16GetSemiMajorAxisEv
FN:106,_ZNK2IO3SDK17OrbitalParameters3TLE14GetInclinationEv
FN:111,_ZNK2IO3SDK17OrbitalParameters3TLE20GetPeriapsisArgumentEv
FN:116,_ZNK2IO3SDK17OrbitalParameters3TLE30GetRightAscendingNodeLongitudeEv
FN:121,_ZNK2IO3SDK17OrbitalParameters3TLE14GetMeanAnomalyEv
FN:126,_ZNK2IO3SDK17OrbitalParameters3TLE24GetSpecificOrbitalEnergyEv
FNDA:0,_ZNK2IO3SDK17OrbitalParameters3TLE26GetSpecificAngularMomentumEv
FNDA:1,_ZN2IO3SDK17OrbitalParameters3TLE31GetSecondDerivativeOfMeanMotionEv
FNDA:1,_ZN2IO3SDK17OrbitalParameters3TLE16GetSatelliteNameB5cxx11Ev
FNDA:1,_ZNK2IO3SDK17OrbitalParameters3TLE14GetInclinationEv
FNDA:1,_ZNK2IO3SDK17OrbitalParameters3TLE20GetPeriapsisArgumentEv
FNDA:1,_ZN2IO3SDK17OrbitalParameters3TLE11GetDragTermEv
FNDA:0,_ZNK2IO3SDK17OrbitalParameters3TLE24GetSpecificOrbitalEnergyEv
FNDA:1,_ZNK2IO3SDK17OrbitalParameters3TLE16GetSemiMajorAxisEv
FNDA:32,_ZN2IO3SDK17OrbitalParameters3TLEC2ERKSt10shared_ptrINS0_4Body13CelestialBodyEEPNSt7__cxx1112basic_stringIcSt11char_traitsIcESaIcEEE
FNDA:122,_ZNK2IO3SDK17OrbitalParameters3TLE15GetEccentricityEv
FNDA:296,_ZNK2IO3SDK17OrbitalParameters3TLE14GetStateVectorERKNS0_4Time3TDBE
FNDA:31,_ZNK2IO3SDK17OrbitalParameters3TLE14GetMeanAnomalyEv
FNDA:32,_ZNK2IO3SDK17OrbitalParameters3TLE9GetPeriodEv
FNDA:1,_ZNK2IO3SDK17OrbitalParameters3TLE30GetRightAscendingNodeLongitudeEv
FNDA:1,_ZN2IO3SDK17OrbitalParameters3TLE22GetBalisticCoefficientEv
FNF:15
FNH:13
DA:18,32
DA:21,32
DA:22,96
DA:24,64
DA:25,64
DA:30,32
DA:32,32
DA:35,32
DA:38,32
DA:41,32
DA:42,32
DA:44,1
DA:46,1
DA:49,1
DA:51,1
DA:54,1
DA:56,1
DA:59,1
DA:61,1
DA:64,32
DA:66,32
DA:69,0
DA:71,0
DA:74,296
DA:77,296
DA:79,0
DA:80,0
DA:84,296
DA:85,296
DA:88,2072
DA:90,1776
DA:93,592
DA:96,122
DA:98,122
DA:101,1
DA:103,1
DA:106,1
DA:108,1
DA:111,1
DA:113,1
DA:116,1
DA:118,1
DA:121,31
DA:123,31
DA:126,0
DA:128,0
LF:46
LH:40
end_of_record
TN:
SF:/home/usr/Sources/SDK/IO.SDK/OrbitalParameters/TLE.h
FN:45,_ZN2IO3SDK17OrbitalParameters3TLED0Ev
FN:45,_ZN2IO3SDK17OrbitalParameters3TLED2Ev
FNDA:5,_ZN2IO3SDK17OrbitalParameters3TLED0Ev
FNDA:32,_ZN2IO3SDK17OrbitalParameters3TLED2Ev
FNF:2
FNH:2
DA:45,37
LF:1
LH:1
end_of_record
TN:
SF:/home/usr/Sources/SDK/IO.SDK/Propagators/Propagator.cpp
FN:19,_ZN2IO3SDK11Propagators10PropagatorC2ERKNS0_4Body10Spacecraft10SpacecraftERNS0_11Integrators14IntegratorBaseERKNS0_4Time6WindowINSB_3TDBEEE
FN:25,_ZN2IO3SDK11Propagators10Propagator18SetStandbyManeuverEPNS0_9Maneuvers12ManeuverBaseE
FN:30,_ZN2IO3SDK11Propagators10Propagator9PropagateEv
FN:65,_ZNK2IO3SDK11Propagators10Propagator27FindNearestLowerStateVectorERKNS0_4Time3TDBE
FN:85,_ZN2IO3SDK11Propagators10Propagator14AddStateVectorERKNS0_17OrbitalParameters11StateVectorE
FN:94,_ZN2IO3SDK11Propagators10Propagator19AddStateOrientationERKNS0_17OrbitalParameters16StateOrientationE
FN:104,_ZN2IO3SDK11Propagators10Propagator23EraseDataFromEpochToEndERKNS0_4Time8DateTimeE
FN:121,_ZNK2IO3SDK11Propagators10Propagator15GetStateVectorsEv
FN:126,_ZNK2IO3SDK11Propagators10Propagator25GetLatestStateOrientationEv
FNDA:30,_ZN2IO3SDK11Propagators10Propagator23EraseDataFromEpochToEndERKNS0_4Time8DateTimeE
FNDA:73,_ZN2IO3SDK11Propagators10Propagator19AddStateOrientationERKNS0_17OrbitalParameters16StateOrientationE
FNDA:42,_ZN2IO3SDK11Propagators10Propagator18SetStandbyManeuverEPNS0_9Maneuvers12ManeuverBaseE
FNDA:49,_ZNK2IO3SDK11Propagators10Propagator15GetStateVectorsEv
FNDA:1,_ZNK2IO3SDK11Propagators10Propagator25GetLatestStateOrientationEv
FNDA:81,_ZN2IO3SDK11Propagators10Propagator14AddStateVectorERKNS0_17OrbitalParameters11StateVectorE
FNDA:33,_ZNK2IO3SDK11Propagators10Propagator27FindNearestLowerStateVectorERKNS0_4Time3TDBE
FNDA:19,_ZN2IO3SDK11Propagators10Propagator9PropagateEv
FNDA:46,_ZN2IO3SDK11Propagators10PropagatorC2ERKNS0_4Body10Spacecraft10SpacecraftERNS0_11Integrators14IntegratorBaseERKNS0_4Time6WindowINSB_3TDBEEE
FNF:9
FNH:9
DA:19,46
DA:20,46
DA:22,46
DA:23,46
DA:25,42
DA:27,42
DA:28,42
DA:30,19
DA:33,38
DA:34,19
DA:37,38
DA:38,19
DA:41,621997
DA:43,621978
DA:46,681714
DA:47,340857
DA:49,0
DA:54,621978
DA:55,621978
DA:59,19
DA:62,19
DA:63,19
DA:65,33
DA:67,33
DA:69,2
DA:71,31
DA:73,31
DA:75,2
DA:77,56
DA:79,27
DA:82,29
DA:85,81
DA:88,81
DA:90,81
DA:92,81
DA:94,73
DA:96,73
DA:98,6
DA:101,73
DA:102,73
DA:104,30
DA:106,30
DA:108,1
DA:111,67
DA:113,61
DA:115,23
DA:117,38
DA:121,49
DA:123,49
DA:126,1
DA:128,1
DA:130,0
DA:133,1
LF:53
LH:51
end_of_record
TN:
SF:/home/usr/Sources/SDK/IO.SDK/Sites/LaunchSite.cpp
FN:14,_ZN2IO3SDK5Sites10LaunchSiteC2EiNSt7__cxx1112basic_stringIcSt11char_traitsIcESaIcEEENS0_11Coordinates8GeodeticESt10shared_ptrINS0_4Body13CelestialBodyEE
FN:18,_ZN2IO3SDK5Sites10LaunchSite21AddAzimuthLaunchRangeERNS0_11Coordinates12AzimuthRangeE
FN:32,_ZN2IO3SDK5Sites10LaunchSite24ClearAzimuthLaunchRangesEv
FN:37,_ZNK2IO3SDK5Sites10LaunchSite22IsAzimuthLaunchAllowedEd
FNDA:20,_ZN2IO3SDK5Sites10LaunchSiteC2EiNSt7__cxx1112basic_stringIcSt11char_traitsIcESaIcEEENS0_11Coordinates8GeodeticESt10shared_ptrINS0_4Body13CelestialBodyEE
FNDA:1,_ZN2IO3SDK5Sites10LaunchSite24ClearAzimuthLaunchRangesEv
FNDA:4,_ZNK2IO3SDK5Sites10LaunchSite22IsAzimuthLaunchAllowedEd
FNDA:4,_ZN2IO3SDK5Sites10LaunchSite21AddAzimuthLaunchRangeERNS0_11Coordinates12AzimuthRangeE
FNF:4
FNH:4
DA:14,20
DA:16,20
DA:18,4
DA:20,4
DA:22,1
DA:24,1
DA:28,3
DA:30,3
DA:32,1
DA:34,1
DA:35,1
DA:37,4
DA:39,5
DA:41,3
DA:43,2
DA:47,2
LF:16
LH:16
end_of_record
TN:
SF:/home/usr/Sources/SDK/IO.SDK/Sites/Site.cpp
FN:24,_ZN2IO3SDK5Sites4SiteC2EiRKNSt7__cxx1112basic_stringIcSt11char_traitsIcESaIcEEERKNS0_11Coordinates8GeodeticERSt10shared_ptrINS0_4Body13CelestialBodyEE
FN:29,_ZNK2IO3SDK5Sites4Site14GetStateVectorENS0_6Frames6FramesERKNS0_4Time3TDBE
FN:39,_ZNK2IO3SDK5Sites4Site8GetRADecERKNS0_4Body4BodyENS0_15AberrationsEnumERKNS0_4Time3TDBE
FN:55,_ZNK2IO3SDK5Sites4Site15GetIlluminationENS0_15AberrationsEnumERKNS0_4Time3TDBE
FN:73,_ZNK2IO3SDK5Sites4Site5IsDayERKNS0_4Time3TDBEd
FN:78,_ZNK2IO3SDK5Sites4Site7IsNightERKNS0_4Time3TDBEd
FN:83,_ZNK2IO3SDK5Sites4Site14FindDayWindowsERKNS0_4Time6WindowINS3_3UTCEEEd
FN:89,_ZNK2IO3SDK5Sites4Site16FindNightWindowsERKNS0_4Time6WindowINS3_3UTCEEEd
FN:95,_ZNK2IO3SDK5Sites4Site35FindWindowsOnIlluminationConstraintERKNS0_4Time6WindowINS3_3UTCEEERKNS0_4Body4BodyERKNS0_17IlluminationAngleERKNS0_10ConstraintEd
FN:127,_ZNK2IO3SDK5Sites4Site24GetHorizontalCoordinatesERKNS0_4Body4BodyENS0_15AberrationsEnumERKNS0_4Time3TDBE
FN:149,_ZNK2IO3SDK5Sites4Site14GetStateVectorERKNS0_4Body4BodyENS0_6Frames6FramesENS0_15AberrationsEnumERKNS0_4Time3TDBE
FNDA:6,_ZNK2IO3SDK5Sites4Site14GetStateVectorERKNS0_4Body4BodyENS0_6Frames6FramesENS0_15AberrationsEnumERKNS0_4Time3TDBE
FNDA:31,_ZN2IO3SDK5Sites4SiteC2EiRKNSt7__cxx1112basic_stringIcSt11char_traitsIcESaIcEEERKNS0_11Coordinates8GeodeticERSt10shared_ptrINS0_4Body13CelestialBodyEE
FNDA:2,_ZNK2IO3SDK5Sites4Site5IsDayERKNS0_4Time3TDBEd
FNDA:9,_ZNK2IO3SDK5Sites4Site35FindWindowsOnIlluminationConstraintERKNS0_4Time6WindowINS3_3UTCEEERKNS0_4Body4BodyERKNS0_17IlluminationAngleERKNS0_10ConstraintEd
FNDA:161,_ZNK2IO3SDK5Sites4Site14GetStateVectorENS0_6Frames6FramesERKNS0_4Time3TDBE
FNDA:7,_ZNK2IO3SDK5Sites4Site14FindDayWindowsERKNS0_4Time6WindowINS3_3UTCEEEd
FNDA:1,_ZNK2IO3SDK5Sites4Site16FindNightWindowsERKNS0_4Time6WindowINS3_3UTCEEEd
FNDA:5,_ZNK2IO3SDK5Sites4Site15GetIlluminationENS0_15AberrationsEnumERKNS0_4Time3TDBE
FNDA:1,_ZNK2IO3SDK5Sites4Site8GetRADecERKNS0_4Body4BodyENS0_15AberrationsEnumERKNS0_4Time3TDBE
FNDA:2,_ZNK2IO3SDK5Sites4Site7IsNightERKNS0_4Time3TDBEd
FNDA:4,_ZNK2IO3SDK5Sites4Site24GetHorizontalCoordinatesERKNS0_4Body4BodyENS0_15AberrationsEnumERKNS0_4Time3TDBE
FNF:11
FNH:11
DA:24,31
DA:26,31
DA:27,31
DA:29,161
DA:31,161
DA:33,161
DA:34,322
DA:36,322
DA:39,1
DA:41,1
DA:42,2
DA:44,2
DA:46,1
DA:48,1
DA:50,1
DA:52,2
DA:55,5
DA:58,5
DA:68,5
DA:70,10
DA:73,2
DA:75,2
DA:78,2
DA:80,2
DA:83,7
DA:85,21
DA:86,14
DA:89,1
DA:91,3
DA:92,2
DA:95,9
DA:97,9
DA:99,9
DA:106,9
DA:107,9
DA:110,9
DA:113,9
DA:115,9
DA:117,9
DA:119,24
DA:121,15
DA:122,15
DA:124,18
DA:127,4
DA:129,8
DA:130,4
DA:131,4
DA:135,4
DA:137,4
DA:139,3
DA:143,1
DA:146,8
DA:149,6
DA:151,6
DA:152,12
DA:154,6
DA:156,18
LF:57
LH:57
end_of_record
TN:
SF:/home/usr/Sources/SDK/IO.SDK/Sites/Site.h
FN:63,_ZNK2IO3SDK5Sites4Site5GetIdEv
FN:70,_ZNK2IO3SDK5Sites4Site7GetNameB5cxx11Ev
FN:77,_ZNK2IO3SDK5Sites4Site14GetCoordinatesEv
FN:84,_ZNK2IO3SDK5Sites4Site7GetBodyEv
FNDA:93,_ZNK2IO3SDK5Sites4Site7GetNameB5cxx11Ev
FNDA:90,_ZNK2IO3SDK5Sites4Site14GetCoordinatesEv
FNDA:442,_ZNK2IO3SDK5Sites4Site5GetIdEv
FNDA:500,_ZNK2IO3SDK5Sites4Site7GetBodyEv
FNF:4
FNH:4
DA:63,442
DA:70,93
DA:77,90
DA:84,500
LF:4
LH:4
end_of_record
TN:
SF:/home/usr/Sources/SDK/IO.SDK/Spice/Builder.cpp
FN:13,_ZN2IO3SDK5Spice7Builder16CreateDoubleCellEiPd
FNDA:48,_ZN2IO3SDK5Spice7Builder16CreateDoubleCellEiPd
FNF:1
FNH:1
DA:13,48
DA:15,48
LF:2
LH:2
end_of_record
TN:
SF:/home/usr/Sources/SDK/IO.SDK/StringHelpers.h
FN:12,_ZN2IO3SDK13StringHelpers7ToUpperENSt7__cxx1112basic_stringIcSt11char_traitsIcESaIcEEE
FNDA:1187,_ZN2IO3SDK13StringHelpers7ToUpperENSt7__cxx1112basic_stringIcSt11char_traitsIcESaIcEEE
FNF:1
FNH:1
DA:12,1187
DA:14,1187
DA:16,1187
LF:3
LH:3
end_of_record
TN:
SF:/home/usr/Sources/SDK/IO.SDK/Time/DateTime.cpp
FN:14,_ZN2IO3SDK4Time8DateTimeC2Ev
FN:18,_ZN2IO3SDK4Time8DateTimeC2ENSt6chrono8durationIdSt5ratioILl1ELl1EEEE
FN:22,_ZN2IO3SDK4Time8DateTimeC2ERKS2_
FN:26,_ZNK2IO3SDK4Time8DateTime19GetSecondsFromJ2000Ev
FN:31,_ZNK2IO3SDK4Time8DateTime9SubstractERKS2_
FN:36,_ZNK2IO3SDK4Time8DateTimemiERKS2_
FN:41,_ZNK2IO3SDK4Time8DateTimeeqERKS2_
FN:46,_ZNK2IO3SDK4Time8DateTimeneERKS2_
FN:51,_ZNK2IO3SDK4Time8DateTimegtERKS2_
FN:56,_ZNK2IO3SDK4Time8DateTimegeERKS2_
FN:61,_ZNK2IO3SDK4Time8DateTimeltERKS2_
FN:66,_ZNK2IO3SDK4Time8DateTimeleERKS2_
FN:71,_ZNK2IO3SDK4Time8DateTime8ToJulianEv
FN:76,_ZNK2IO3SDK4Time8DateTime18CenturiesFromJ2000Ev
FN:81,_ZN2IO3SDK4Time8DateTimeaSERKS2_
FNDA:7699026,_ZN2IO3SDK4Time8DateTimeC2ENSt6chrono8durationIdSt5ratioILl1ELl1EEEE
FNDA:49,_ZNK2IO3SDK4Time8DateTimemiERKS2_
FNDA:622273,_ZNK2IO3SDK4Time8DateTimeltERKS2_
FNDA:7060672,_ZN2IO3SDK4Time8DateTimeC2ERKS2_
FNDA:215,_ZN2IO3SDK4Time8DateTimeC2Ev
FNDA:63,_ZNK2IO3SDK4Time8DateTimeeqERKS2_
FNDA:3,_ZNK2IO3SDK4Time8DateTime8ToJulianEv
FNDA:192972,_ZNK2IO3SDK4Time8DateTime9SubstractERKS2_
FNDA:137,_ZNK2IO3SDK4Time8DateTimeleERKS2_
FNDA:1,_ZNK2IO3SDK4Time8DateTimeneERKS2_
FNDA:622841,_ZN2IO3SDK4Time8DateTimeaSERKS2_
FNDA:1,_ZNK2IO3SDK4Time8DateTime18CenturiesFromJ2000Ev
FNDA:70,_ZNK2IO3SDK4Time8DateTimegeERKS2_
FNDA:2139139,_ZNK2IO3SDK4Time8DateTime19GetSecondsFromJ2000Ev
FNDA:119,_ZNK2IO3SDK4Time8DateTimegtERKS2_
FNF:15
FNH:15
DA:14,215
DA:16,215
DA:18,7699026
DA:20,7699026
DA:22,7060672
DA:24,7060672
DA:26,2139139
DA:28,2139139
DA:31,192972
DA:33,192972
DA:36,49
DA:38,49
DA:41,63
DA:43,63
DA:46,1
DA:48,1
DA:51,119
DA:53,119
DA:56,70
DA:58,70
DA:61,622273
DA:63,622273
DA:66,137
DA:68,137
DA:71,3
DA:73,3
DA:76,1
DA:78,1
DA:81,622841
DA:84,622841
DA:85,0
DA:87,622841
DA:89,622841
LF:33
LH:32
end_of_record
TN:
SF:/home/usr/Sources/SDK/IO.SDK/Time/DateTime.h
FN:29,_ZN2IO3SDK4Time8DateTimeD0Ev
FN:29,_ZN2IO3SDK4Time8DateTimeD2Ev
FNDA:0,_ZN2IO3SDK4Time8DateTimeD0Ev
FNDA:7699241,_ZN2IO3SDK4Time8DateTimeD2Ev
FNF:2
FNH:1
DA:29,7699241
LF:1
LH:1
end_of_record
TN:
SF:/home/usr/Sources/SDK/IO.SDK/Time/TDB.cpp
FN:14,_ZN2IO3SDK4Time3TDBC2ENSt6chrono8durationIdSt5ratioILl1ELl1EEEE
FN:18,_ZN2IO3SDK4Time3TDBC2ENSt7__cxx1112basic_stringIcSt11char_traitsIcESaIcEEE
FN:25,_ZNK2IO3SDK4Time3TDB8ToStringB5cxx11Ev
FN:32,_ZNK2IO3SDK4Time3TDB3AddERKNS1_8TimeSpanE
FN:37,_ZNK2IO3SDK4Time3TDBplERKNS1_8TimeSpanE
FN:42,_ZNK2IO3SDK4Time3TDBmiERKNS1_8TimeSpanE
FN:47,_ZNK2IO3SDK4Time3TDBmiERKS2_
FN:52,_ZNK2IO3SDK4Time3TDB5ToUTCEv
FNDA:638193,_ZN2IO3SDK4Time3TDBC2ENSt6chrono8durationIdSt5ratioILl1ELl1EEEE
FNDA:622899,_ZNK2IO3SDK4Time3TDB3AddERKNS1_8TimeSpanE
FNDA:89,_ZNK2IO3SDK4Time3TDBmiERKNS1_8TimeSpanE
FNDA:37,_ZNK2IO3SDK4Time3TDB5ToUTCEv
FNDA:197,_ZN2IO3SDK4Time3TDBC2ENSt7__cxx1112basic_stringIcSt11char_traitsIcESaIcEEE
FNDA:192922,_ZNK2IO3SDK4Time3TDBmiERKS2_
FNDA:622895,_ZNK2IO3SDK4Time3TDBplERKNS1_8TimeSpanE
FNDA:28,_ZNK2IO3SDK4Time3TDB8ToStringB5cxx11Ev
FNF:8
FNH:8
DA:14,638193
DA:16,638193
DA:18,197
DA:21,197
DA:22,197
DA:23,197
DA:25,28
DA:28,28
DA:29,56
DA:32,622899
DA:34,1245798
DA:37,622895
DA:39,622895
DA:42,89
DA:44,178
DA:47,192922
DA:49,192922
DA:52,37
DA:54,37
DA:55,37
DA:56,74
LF:21
LH:21
end_of_record
TN:
SF:/home/usr/Sources/SDK/IO.SDK/Time/TimeSpan.cpp
FN:13,_ZN2IO3SDK4Time8TimeSpanC2Ev
FN:17,_ZN2IO3SDK4Time8TimeSpanC2ENSt6chrono8durationIdSt5ratioILl1ELl1EEEE
FN:21,_ZNK2IO3SDK4Time8TimeSpan14GetNanosecondsEv
FN:26,_ZNK2IO3SDK4Time8TimeSpan15GetMicrosecondsEv
FN:31,_ZNK2IO3SDK4Time8TimeSpan15GetMillisecondsEv
FN:36,_ZNK2IO3SDK4Time8TimeSpan10GetSecondsEv
FN:41,_ZNK2IO3SDK4Time8TimeSpan10GetMinutesEv
FN:46,_ZNK2IO3SDK4Time8TimeSpan8GetHoursEv
FN:51,_ZNK2IO3SDK4Time8TimeSpanplERKS2_
FN:56,_ZNK2IO3SDK4Time8TimeSpanplEd
FN:61,_ZNK2IO3SDK4Time8TimeSpanmiERKS2_
FN:66,_ZNK2IO3SDK4Time8TimeSpanmlEd
FN:71,_ZNK2IO3SDK4Time8TimeSpandvEd
FN:76,_ZNK2IO3SDK4Time8TimeSpaneqERKS2_
FN:81,_ZNK2IO3SDK4Time8TimeSpanneERKS2_
FN:86,_ZNK2IO3SDK4Time8TimeSpangtERKS2_
FN:91,_ZNK2IO3SDK4Time8TimeSpangeERKS2_
FN:96,_ZNK2IO3SDK4Time8TimeSpanltERKS2_
FN:101,_ZNK2IO3SDK4Time8TimeSpanleERKS2_
FNDA:1,_ZNK2IO3SDK4Time8TimeSpan15GetMicrosecondsEv
FNDA:0,_ZNK2IO3SDK4Time8TimeSpangeERKS2_
FNDA:79,_ZNK2IO3SDK4Time8TimeSpangtERKS2_
FNDA:188,_ZN2IO3SDK4Time8TimeSpanC2Ev
FNDA:163,_ZNK2IO3SDK4Time8TimeSpanltERKS2_
FNDA:3,_ZNK2IO3SDK4Time8TimeSpaneqERKS2_
FNDA:0,_ZNK2IO3SDK4Time8TimeSpanplEd
FNDA:8,_ZNK2IO3SDK4Time8TimeSpan8GetHoursEv
FNDA:652749,_ZNK2IO3SDK4Time8TimeSpan10GetSecondsEv
FNDA:1,_ZNK2IO3SDK4Time8TimeSpan14GetNanosecondsEv
FNDA:95,_ZNK2IO3SDK4Time8TimeSpanmlEd
FNDA:0,_ZNK2IO3SDK4Time8TimeSpanleERKS2_
FNDA:207922,_ZN2IO3SDK4Time8TimeSpanC2ENSt6chrono8durationIdSt5ratioILl1ELl1EEEE
FNDA:1,_ZNK2IO3SDK4Time8TimeSpan15GetMillisecondsEv
FNDA:81,_ZNK2IO3SDK4Time8TimeSpanplERKS2_
FNDA:83,_ZNK2IO3SDK4Time8TimeSpandvEd
FNDA:1,_ZNK2IO3SDK4Time8TimeSpan10GetMinutesEv
FNDA:1,_ZNK2IO3SDK4Time8TimeSpanmiERKS2_
FNDA:178262,_ZNK2IO3SDK4Time8TimeSpanneERKS2_
FNF:19
FNH:16
DA:13,188
DA:15,188
DA:17,207922
DA:19,207922
DA:21,1
DA:23,1
DA:26,1
DA:28,1
DA:31,1
DA:33,1
DA:36,652749
DA:38,652749
DA:41,1
DA:43,1
DA:46,8
DA:48,8
DA:51,81
DA:53,81
DA:56,0
DA:58,0
DA:61,1
DA:63,1
DA:66,95
DA:68,95
DA:71,83
DA:73,83
DA:76,3
DA:78,3
DA:81,178262
DA:83,178262
DA:86,79
DA:88,79
DA:91,0
DA:93,0
DA:96,163
DA:98,163
DA:101,0
DA:103,0
LF:38
LH:32
end_of_record
TN:
SF:/home/usr/Sources/SDK/IO.SDK/Time/UTC.cpp
FN:16,_ZN2IO3SDK4Time3UTCC2ENSt6chrono8durationIdSt5ratioILl1ELl1EEEE
FN:20,_ZN2IO3SDK4Time3UTCC2ENSt7__cxx1112basic_stringIcSt11char_traitsIcESaIcEEE
FN:34,_ZNK2IO3SDK4Time3UTC8ToStringB5cxx11Ev
FN:43,_ZNK2IO3SDK4Time3UTC5ToTDBEv
FN:50,_ZNK2IO3SDK4Time3UTC3AddERKNS1_8TimeSpanE
FN:55,_ZNK2IO3SDK4Time3UTCplERKNS1_8TimeSpanE
FNDA:18,_ZN2IO3SDK4Time3UTCC2ENSt7__cxx1112basic_stringIcSt11char_traitsIcESaIcEEE
FNDA:159,_ZNK2IO3SDK4Time3UTC5ToTDBEv
FNDA:116,_ZNK2IO3SDK4Time3UTC3AddERKNS1_8TimeSpanE
FNDA:116,_ZNK2IO3SDK4Time3UTCplERKNS1_8TimeSpanE
FNDA:161,_ZN2IO3SDK4Time3UTCC2ENSt6chrono8durationIdSt5ratioILl1ELl1EEEE
FNDA:14,_ZNK2IO3SDK4Time3UTC8ToStringB5cxx11Ev
FNF:6
FNH:6
DA:16,161
DA:18,161
DA:20,18
DA:24,18
DA:26,18
DA:28,0
DA:31,18
DA:32,18
DA:34,14
DA:38,14
DA:39,14
DA:40,28
DA:43,159
DA:45,159
DA:46,159
DA:47,318
DA:50,116
DA:52,232
DA:55,116
DA:57,116
LF:20
LH:19
end_of_record
TN:
SF:/home/usr/Sources/SDK/IO.SDK/Time/UTC.h
FN:31,_ZN2IO3SDK4Time3UTCD0Ev
FN:31,_ZN2IO3SDK4Time3UTCD2Ev
FNDA:0,_ZN2IO3SDK4Time3UTCD0Ev
FNDA:606,_ZN2IO3SDK4Time3UTCD2Ev
FNF:2
FNH:1
DA:31,606
LF:1
LH:1
end_of_record
TN:
SF:/home/usr/Sources/SDK/IO.SDK/Time/Window.h
FN:33,_ZN2IO3SDK4Time6WindowINS1_3TDBEEC2ES3_NS1_8TimeSpanE
FN:34,_ZN2IO3SDK4Time6WindowINS1_3UTCEEC2ES3_S3_
FN:34,_ZN2IO3SDK4Time6WindowINS1_3TDBEEC2ES3_S3_
FN:35,_ZN2IO3SDK4Time6WindowINS1_3TDBEEC2ERKS4_
FN:35,_ZN2IO3SDK4Time6WindowINS1_3UTCEEC2ERKS4_
FN:39,_ZNK2IO3SDK4Time6WindowINS1_3TDBEE12GetStartDateEv
FN:39,_ZNK2IO3SDK4Time6WindowINS1_3UTCEE12GetStartDateEv
FN:40,_ZNK2IO3SDK4Time6WindowINS1_3UTCEE10GetEndDateEv
FN:40,_ZNK2IO3SDK4Time6WindowINS1_3TDBEE10GetEndDateEv
FN:41,_ZNK2IO3SDK4Time6WindowINS1_3UTCEE9GetLengthEv
FN:41,_ZNK2IO3SDK4Time6WindowINS1_3TDBEE9GetLengthEv
FN:42,_ZNK2IO3SDK4Time6WindowINS1_3UTCEEeqERKS4_
FN:42,_ZNK2IO3SDK4Time6WindowINS1_3TDBEEeqERKS4_
FN:43,_ZNK2IO3SDK4Time6WindowINS1_3TDBEEneERKS4_
FN:45,_ZNK2IO3SDK4Time6WindowINS1_3UTCEE10IntersectsERKS4_
FN:45,_ZNK2IO3SDK4Time6WindowINS1_3TDBEE10IntersectsERKS4_
FN:56,_ZNK2IO3SDK4Time6WindowINS1_3UTCEE15GetIntersectionERKS4_
FN:68,_ZNK2IO3SDK4Time6WindowINS1_3TDBEE5MergeERKS4_
FN:75,_ZN2IO3SDK4Time6WindowINS1_3UTCEEaSERKS4_
FNDA:5,_ZNK2IO3SDK4Time6WindowINS1_3UTCEE15GetIntersectionERKS4_
FNDA:177,_ZN2IO3SDK4Time6WindowINS1_3TDBEEC2ES3_S3_
FNDA:47,_ZNK2IO3SDK4Time6WindowINS1_3UTCEE12GetStartDateEv
FNDA:2,_ZNK2IO3SDK4Time6WindowINS1_3UTCEEeqERKS4_
FNDA:2,_ZNK2IO3SDK4Time6WindowINS1_3TDBEEneERKS4_
FNDA:168,_ZN2IO3SDK4Time6WindowINS1_3TDBEEC2ES3_NS1_8TimeSpanE
FNDA:44,_ZN2IO3SDK4Time6WindowINS1_3UTCEEC2ES3_S3_
FNDA:57,_ZNK2IO3SDK4Time6WindowINS1_3TDBEE5MergeERKS4_
FNDA:7,_ZNK2IO3SDK4Time6WindowINS1_3TDBEEeqERKS4_
FNDA:54,_ZN2IO3SDK4Time6WindowINS1_3UTCEEC2ERKS4_
FNDA:121,_ZNK2IO3SDK4Time6WindowINS1_3TDBEE9GetLengthEv
FNDA:622093,_ZNK2IO3SDK4Time6WindowINS1_3TDBEE10GetEndDateEv
FNDA:7,_ZNK2IO3SDK4Time6WindowINS1_3UTCEE9GetLengthEv
FNDA:256,_ZNK2IO3SDK4Time6WindowINS1_3TDBEE12GetStartDateEv
FNDA:1,_ZN2IO3SDK4Time6WindowINS1_3UTCEEaSERKS4_
FNDA:12,_ZNK2IO3SDK4Time6WindowINS1_3TDBEE10IntersectsERKS4_
FNDA:150,_ZNK2IO3SDK4Time6WindowINS1_3UTCEE10GetEndDateEv
FNDA:14,_ZNK2IO3SDK4Time6WindowINS1_3UTCEE10IntersectsERKS4_
FNDA:84,_ZN2IO3SDK4Time6WindowINS1_3TDBEEC2ERKS4_
FNF:19
FNH:19
DA:33,168
DA:34,221
DA:35,138
DA:37,138
DA:39,303
DA:40,622243
DA:41,128
DA:42,9
DA:43,2
DA:45,26
DA:47,26
DA:56,5
DA:58,5
DA:60,0
DA:63,10
DA:64,5
DA:65,15
DA:68,57
DA:70,114
DA:71,57
DA:72,171
DA:75,1
DA:78,1
DA:79,0
DA:81,1
DA:82,1
DA:83,1
DA:84,1
LF:28
LH:26
end_of_record
